(lp1
S'000000000000000000000000000000000000000000000000000001010001010001000000000000000000000000000000000000000000100001000100000000000000000000000000000000001000100000000011000100101000000000000000000000001000000100010000000110000000000000001100000000000000000000001000001000000000000000010000000010000000'
p2
aS'000000000000000000000000000000000000000010000000000010000000000000010000000000000000000000000000010000000000000000000000000000100010000000100000000000000000000000000000000000000010000100000000000000001010000001000000100000000000000000000100000111001000100000000101000100000100000100000010000000000110'
p3
aS'000000000000000000000000000000000000001010001000000000000000001100000000000000000000000000000100100000000100000000001000000000000000000000001000100000000011001000100000000001000000000000100010000000000000101000000000000000000000000000000000000010000010100000000000000000010000001000000100010000000000'
p4
aS'000000000000000000000000000000000000100000000000000000000010000101000000101010000000000000000000000000010000000000000000100000000100000000000010010011000001100000100000000000100000000010000000000000000000000000000000001000000000000000100000000000000000000000000000000000000010010000100000000100000000'
p5
aS'000000000000000000000000000000000001000001000000000001000000000000010000000000000000000000000010000001000111010100000000101010000010010000100000010000000000000000101000000000100000000001000101000000000000000000000100001010000010000000000000000000000000000000000000000000000000000101010000000000110000'
p6
aS'000000000000000000000000000010010000000000001000100000000000001000000001100100000000100000000000000000000000000000010000000100000010000010100000001001010000000000000000001000000000000000000100101000000000000000000000000000010000000100001000001001000000000000110001000000000000010000001000000010000101'
p7
aS'000000000000000000000000000100000001000000010000000000000000010000010000100100000000000000001000000000000001000000000000100000000000000001000000001000100000000010100000011000000000000000000100000000000000000000000000000000110010000010010000110000000000000001000000000100000000000000000000100000000000'
p8
aS'000000000000000000000000000110000000000000010010000000001000000000000100001000100000000000100000000000011001100000000101010001000000001000000000000001000000000000000010100010000000000000001000000000000000000100000000000000000100000000000000000011000000000000010000000000000000000000000010000000000001'
p9
aS'000000000000000000000000000110000000001100000000000000010000000000000000010000000000000000000000010000000000001000010000010000010001001010000010000000000000000000000010100011000000000010010000001000000000001000010000000000000000000000010000000010100000000000000000001000000001000000000000000000000000'
p10
aS'000000000000000000000000010000000000000000000000000000000000010000000000000000000100000000000000000000000100000000000000000000010000000000000000000100000011000000000100000000000000000100000000000000000000000000000000000010000000000010000000000001000000000100010001000000001100001000001000000000000101'
p11
aS'000000000000000000000000010000000000000000000001010000000000000000000000000000000010101000000001000000000001010000000100000000100010010000000000000001010000100000000100010000000000000000000010000000100100000000000100000000000000100000000100000010000000000011000000100010000000010000000000000001000000'
p12
aS'000000000000000000000000100000000000000000000000100000100000000000100000000000000100000000000000000000010000000000001100000000000000000000000000100000100000000000000010000000000000000000001000100001000000101000000000010000100000000000000000000000000000010000000000000000011010000000000011000000000000'
p13
aS'000000000000000000000001000000000000001010000000000000010000100001000000010000000000010000000000100000000000000000000000001000000000000000000100000000000000010000000010000010000000000000010000000000000000010000000000100000110000000000000000000000000100101000000000010001000010000010000000100000000010'
p14
aS'000000000000000000000001000000000001000000100000001000000000000001000000001000000000000000011001000000000000000000000000000000000000000010000100001001100110000000000010000010010000001000100010000000010000000000000000000000000000000000000010000000000000000000000100001000001000100000000000000000000000'
p15
aS'000000000000000000000010000000000000000000000000000000000000000000000000011000000000000000000010000000000000000000000000000000000000100000000010000000000000001010000001000000000000000000000000000001000000100010000000100000101000001001000000000000000000011000000000000000000000010100000000000000000100'
p16
aS'000000000000000000000100000100000000011000000001000001000000000000000100000000000000000000000000000001001000000000000010010000000000000100100000001000000000000001000000000000000000000001000000000001000000000001010100000010000000000000000000000000000000000000000000000100000000000000000100000000001011'
p17
aS'000000000000000000001000000000010000000100000000000000100000000001000000000010000000000110000000000000010000000010000000000100000000000000000001010000000010000010000000001000000001000000000000100000100000100011000000000100000001000001000000001000001000000000000010000001000000000000000000000010000011'
p18
aS'000000000000000000001000010000000010000000100000000000010000000000000000100000000001010001000000100000001000010001001000000000001000000000000000010000000000100000100001100000100010000101010000000100000000000000000000000000000000000100000001000000000100000000000000000000000000000001000000000000000001'
p19
aS'000000000000000000010000000000000001000010000100000000000000000000000000000100000000010000000000010000110000100000000001001000000000000000000000000010000000100000000000000000000000000000100000000001000000010000001000000000001000010000000010000000000100000011000000000000000000000000000000100000000000'
p20
aS'000000000000000000010000000010000000100001010000000001010000001000000000000011000001000100100000000000000000000000000000000000000000000010000000000000010000000010000000000000000100000011000000000000001000000001000100000000000000000000000000100000000000000010000100000010000100000000010000100000000000'
p21
aS'000000000000000000010000100001000000000000000001000010000000000100000000001000000000000000000000000000101010100000000000000000000010000100000000000000000010000100010000000010000001010000001000000001000100100011000010000000000000000000000000000100001001001000000000000000000000100000001000000100000100'
p22
aS'000000000000000000010010010000000000011000000000000001000000000001100000000100010000000000000000000000000000000000000000001000000000000000000000001000000000000000000000000100010000000000000000000000000000000000100001000000000000001000000000000000000000000010001110010000001001010000000010000010001001'
p23
aS'000000000000000000010100000000000000000000000000000000000100000011001000000001000001001000000000000110000000001000010000000001010000000000000000100000000001000000000000001000000000000000000001000000000000001000010000000000000000000000000100000000000001000000000000000000000010000000000000000000000100'
p24
aS'000000000000000000100101000010000000101000000000010001001100000010000000000000000000000100000000000000000000000010000010000000000000000000000000010000000000000000000000000100000000000000000000000000010000000000000000000000000000000000000001001000000000100001100100001100000000100000000000000000000000'
p25
aS'000000000000000000110000000100000000000000000000000001000100000000000000000010000000000000001000001000000000000000000000000001010000100001000000000000000000000000000000000000010111000100000000001010100000000000000000001000000100000001000000000000010100000000000000000000000000000000000001000000000000'
p26
aS'000000000000000001000000000000011000000010000100100000000000000000110001100110000000000000100001000000001000000000011000000100000001000110000110000000010100000000000000000000000000000000000000001000101110000000000100001100000000000000101100010000010010000000010000000010100000100000000010000011000010'
p27
aS'000000000000000001000000010000000000001100010000001000000000000000000000100001000000000010000000000000000100000010001100001100000000000000010000000000001000000000000000000100000000000001010000000000001000000000000010001000000000000000001000001000010000000000000000000000000000000101000000000000000001'
p28
aS'000000000000000001000000100000000000000000001000000000000000000001000000001000000000000000000000000000100000000000000000100000000000000000100001000000000010000100000100000000000000000000000000000000001000100000000010000001000001000010000000000000000000000100000000000000000000000000110000000000000000'
p29
aS'000000000000000001000001000000011000000010100100100000000000000000110001100110000000000000100001000000001000000000011000000100000001000110000110000000010100000000000000000000000000000000000000001000101110000000000100001100000000000000101100010000000010000000010000000010100000100001000010000001000010'
p30
aS'000000000000000001000010000000000001000000000010000000000000000000000100100000100000000000000000000000000000010100000010100000100010000001000000010000000000000000100010000000000100000000010000000000010001100000000000000000000010001000000000000000000000000010001000101000000000000110000001000001000010'
p31
aS'000000000000000001001101000000000001000000000010010000010000000000001000010000000100000010000001000000010000000000000000000000000000001000001100100000000010000000000000000001101000000000000000000101010000000000000100000000100100000000000000010000000000000000110010000100000000000000000000000000010000'
p32
aS'000000000000000010000010000000000000000001000000000000100000000010000000000001000000000000001100000000000000000000100001000000001000100000000000100000001000000000010000000000000000101000000001000010000000000000000000000000010000000100000000000000000000000000001000000000000100010001000000000000000000'
p33
aS'000000000000000011010000000000000000000000100000010001000000000000001000000000100000000001000000000000001101000000000000000010001000000110000000001000000000000100000000000000000000000000000000000010001000000100100000001100000010000000000010000100010000000000000010110000010000010100000000000010011000'
p34
aS'000000000000000100000000000000000000000000000000001000000000100000010111000000001000000100001000000000000000000000100000000100001000110000000010000100000000000000000000000000010000010000000000010000000000100000010001000000000000000000000000000110001000001000000000100001000000000001000100000000000000'
p35
aS'000000000000000100000000000000000000000000000010010000000000000100000000000000000000100001000000000000000000000000000001001000000000001000000000000100000001100000001000000001000000000000000000000000100000000000010000010000000000000000000000000100000001000000000000000100100000000000001000000001000001'
p36
aS'000000000000000100000000001000000000000010000000000001000000000000100000000100101100000100001000000100010100000000000000000000010000100000000100000000000000000000000010000000001100010000001000000000000000000000000010000000000110000000000000000000000000001100000000000000100010000000000100000000000000'
p37
aS'000000000000000100000000100000000100000000000010000000000000000000000000000000000000000100000000001010000000010100000000000000000000000000000100000000000010011000000010111001000001100010000100000000000010000000000000000100000100100000000001000000001000000010000000000000100000000000000000000000000000'
p38
aS'000000000000000100000001000000000000000000000000100000000000000100000000000000000000000000100010000000000000100000000000000101000000000100000000000100000000000010000000000000000000100000001000000000000010000000101000100000000000000000001000011000000000000000000000000000000000000000000000010000100000'
p39
aS'000000000000000100010001001000000010000000000000001000000000000000001000000000000000000000000010000000000000000000000000000001000000001000000000010010001000000000000000000000000010001000010000000000000000100000000000000000100000100000000000000000000000000001100001000010000001000000000010001000000000'
p40
aS'000000000000000100100000000100000000000100000000000000000000100000000000010000100100100101000000100000100000000100000000100000100100010000000000010000000000000000100001100000000100000000000000010000000000000000000000000000000000000100000000000000010000000000000000000000000000011000000000000001000000'
p41
aS'000000000000000110000000000010000000000000000100100000000010100000000000010100000000000011000001000100000010000000000000100000000000000010000000010000000000000001001000000000000000000100000000001000000010011000000000000000000100010000000000001000000100000000000000101000000000000000000100000001010000'
p42
aS'000000000000000110010000110001110000000000100000000000010000000000000100000000000000100000000000000000000100000000000000000001000000010100000000000100001000000000000000001001111000000000000000010000000010000000000000000000000000000000000000000000000000000000000000000100001000000000010000000011010010'
p43
aS'000000000000001000000000000000000101100000000000010001000000000000000000010000000000000000000000100100000000000010000000000000000000000000000100000010000000100001000100100000000000000011000000000010100000000000001000000000010000110000000000010000001001000000110001000000000000110100000000001010010000'
p44
aS'000000000000001000000100000000000000011000000100000001000001000000000000000100000000000000001000000000000001010000000010000000000100000000000010001000000100100000000000100101001000000000000000000000000000010000000000000000010000000000001001000000000001000000000000000000000000000000000000000000000000'
p45
aS'000000000000001001100001000000100000000000000000000000110000000000110010100001000000000001100100000000010000001000010000010000000000000000000000000000001100000000000001000000100000100000000000010000010000010000000001100000000100000100000101000001000100000000000000000000000000000000000000000000010001'
p46
aS'000000000000001010000000000000000010010000000000000001000001010000000000000000000000000000000000000010000000000000100000000000000000000010000000000000010001000000000000000001000000000000000000100000000010110000000000000000000000000001000000000000100000000000000000000000010000000001000001001100100000'
p47
aS'000000000000001101101000000000000000001000000100000000100010000000000000000000000001000000000010000000000000000000000000000000110000010000001010000000000000011010010000000000000010000100000000000000000100000000000001001000000000000000010000000000000000100000000011000000010000000010000000000000000000'
p48
aS'000000000000010000000010000000000000000000000100100000000000000000001000010000001000000000000000000110000000100000000000000000000010000000000000000000000100000000010010000000000000100000000010000000000100000001100000000000000000001000000000010000010000000000000000000010001001100000000100000000000000'
p49
aS'000000000000010000000010000101010010000000001010100000000000000000000000010000001001000000000100000000000000000000010000000000010000000001000001001011000000000000000100000000000111000000000000110000000000000010100000000000000010000000000000100000000000000000000000000000000000000000000000000000000000'
p50
aS'000000000000010000101010010000000010001000010100000000000000001010000000100100000000000000000000000000000010000000100000000110000000000000000000000000000000100000010100000000000000011000100000001000000010000001000000000000000000000101000000000000000000000000000100000000000100100000000000000100000001'
p51
aS'000000000000011000000000000000001000000100000000000000100000100000001000000000000000000100000001100001010000000000000100000110000000001001100000010000000000000000000000010000000000000000000000001000000000000000000000010000000000001001100000000000100000000000000100000000000001010000000000000100000000'
p52
aS'000000000000011000000000010000000000000001000000000000000000001000000000001010000000000000000000001000000000000000010000100000000000010000000000001000000000001000000000010000000000000000010001101000000010000000000010000000000000000000000000010110000000000000010000100000000100001001000000000000000000'
p53
aS'000000000000100000100000000001000000000000100000000000000000000000000000000100000000000000100000000010100110100000000000000000100000000000000000100000010100000000000000000000000000000010000000000001000000000001000001000000100010010001010001000000000000000000000000000000000000010000000000000001000000'
p54
aS'000000000000100000100000000011000000000100100000100000000000010100010000000000000010000000010000000101010000001000000100010010000010000000010000000000000000000000000010000000000000110000000000100000000000100100000000000010000010000000000010000001000000000000000000000000000100000000000000000000000000'
p55
aS'000000000000100001110000010010100000011000110000100000000100000000000101011000101100001010000000000000100000000010000101000000000001000000001000001010100010000010101010011000010000000000010000000100100000000010000000011000100010000010001000000000000010010100011000000001100111000101110000000000001000'
p56
aS'000000000000110100000101101100100100010000100100100000000000010100110100000110101001011010010000110011000100100000000001000000011100100001100000000001010100000000001001000000110010000000000100010010000010010000001100000100000010100010101000100010100000101000000000000010001110100000010000110000010001'
p57
aS'000000000000110110000101011101001000000000100000100000000000000100101100100010010000011101010000100011011100100000000100000000101000000001000000000001010000000000010010000000010010100000000110010011100010000000000100000100000010100010110000000010000000101000000000000010000000100001010100110000010001'
p58
aS'000000000000111000000000001000001000000000100000000000010010000000000001000000000000000010000010000000000000000000100000001000000000000101000010000000000000000000000000000000000011000000000000000000010000000001001000000000001000000000001000000001000000000000010000001000001010001000000010000000001000'
p59
aS'000000000001000000000000000000000100000001100100000100100001010101001100000000000010001100100001100000000000000000000000100001100000000100000000000000010010000000000000000000000010000100000001000010100000001000000000000000000001000000000001000000000000100010011100000000001000000000001000000000000000'
p60
aS'000000000001000000000000000000010000101000100000000000001000000000000000000000001010011000000000000000000000000000100000000010000000010000000000000000000000000000100000000000001100010000100010000100000000000000000000000000000000000011000100000000000000000000000000000000000000100000100001000000001000'
p61
aS'000000000001000000000000000010000000000000011000000000000000000000100000100100000000000000111000000000000000000000000000100010010000000000000000000000000000000000000000000010000000000000010000100001000000000000001001010000000000000001000000000011000000000000000001000001000001000000000000000000000000'
p62
aS'000000000001000000000000100000000000000000010100000000000000010000000110000000000000000000000000000000000000000001000000100100000000000100101000000000100000001000000000001000010000000000000100001000000001000000010000000000000000010000001000000000000000000001000000000000010100000100000000000001000000'
p63
aS'000000000001000000000010000000000100100010000100000000100000101000001000000001000000000000000001110000000110001000000000010000000000000001000000000100000000000000010001000000000000000000000000000000000000000000100000000000001011000010100000000000100010000000000100100000000000000000000000001000000000'
p64
aS'000000000001000011000000000000000000100000100000000000000000000000110000100000010001000010000000000000000000100000010000000010100000000000000001000000000000000000000000100000100000000000000010000001100000000000000110100000010000100000011010011001000000000010000000000100000100000110000000000000000000'
p65
aS'000000000010000000000000000000000100010000010000001000100000000100000000000000000001000100000011000000110000000000001000000000000000000000000000000010010000001011000000010001000000000000010000000000000000000000000001000000000000000000100000000000000000010000000000000000100001000000100100001010001000'
p66
aS'000000000010000000000000000000100000000000000000000110000000000000000100000000000000000000000000001000000000000001100000000000001000000000011000000010000001000000000000000000000000000000000000010001000000000000000000000000100000010100001000000010000000000010000000000000100000000000011000000000000000'
p67
aS'000000000010000000000000010000000000000100010001010100000000000000000000000000000000000000000000000100001001000000010000000000100010000000000000000010010010000000000000100001101000100001000100000101001000000100000101000000010100000000000010000000001100000000001000000010000000000000000000000000000000'
p68
aS'000000000010000010000010000000000000000000000000100000000100000000001000000001000000000001000000000001000000100000000000000000001000000000000000000010000000000101000001000000000000011000000010000001100000010000000000000000100100001100000000000000000000000000000000011001101000000100001001010000000000'
p69
aS'000000000010010000000000010000000100000100000000000000010100001000000000011000000000010000010000000000000100000010000001000000000000000000000000000000010000000000000000001000000000100000000000000010000001000000000100000000000010000000000001000000000000000010000100010000100110000000000000000100100000'
p70
aS'000000000010100010110100100000010001100000000000011100001000010100000001100000000011001100000100101000000110011000010101000011001001000000110010000000000001000000010000010011001100000000100111000100000100000010100001000100100011000100010000000001010001011001000100000000000000000010000000001001010000'
p71
aS'000000000010110110000000000011000000000010000000000000000010000000110010000100000000000000000010000001000000000001100000000000000100001000000000000000000000001000000001000001000011000000010100100001100011000000000000010000001000000000000010000000000000000000000100000000101000000100000001100000000000'
p72
aS'000000000100000000000000000000000000000000000000001000000000000011100010000000000000000000000010000000000000000100000000100000000000000100000000001010000001000100100000010000000001100000000000000000100100000000001000000101000000000000000010000000100000000000000010000000000000000100000000000100011000'
p73
aS'000000000100000000000000000000000001000000000001000000000000000000000000001000011010000000000100010100001000010000000000000010000000000000100010000000000000000000000000000000000000000000000000000000100001000010010100000000000000000000000000000000000000000010000000000010000100000010001000000010000000'
p74
aS'000000000100000000010000000000000000000000000000000001000010010000000000000100000000000000000000000000000000000000000000010001000000101000010000000001100000000000000000001000010000000000000000000010010000000000001000000001000001000000001000000101100100000000000000000000001001000000001010011000100001'
p75
aS'000000000100000000100000000001000000000000000100000100000000001000000000010000000000000010000000010000000000000001000010000000000000000011000100011111000000000000000000000000000000000100000000001000000000000000000000000000100000000010000001000000000100000000000000000000000001000010000000000000000010'
p76
aS'000000000100000000100100100000001000000010000001000000000010000100000000100011110001000000000100000000000000000010101000001000000100000001000000000000000000000001000001010000010001000100000000101000000000000010010000000000000010000000000000000000000100000000000100000000010000000000000001000000000101'
p77
aS'000000000100000100100000000000000011000000010000001000100000001000000000010000000100000000001000001001010011000001000000100000001011000000000100010000000000000000000000000000101000001000100000000000000100000001001000000001010000000000000000000000000100000000000000100000000000010000100000000000010000'
p78
aS'000000000100100000010110010001001000000000000001000010000010000010000001010000100000000010001000001000000000000000010100000000000000001000000000000001000000000011000010010000000000000000000010000000000000000000010010000001001000100001000000000000000000001001010000000001010000000000000010010000000000'
p79
aS'000000000101000011000000000001000010000100000000000001000000000000000100000000000000000000101000001000000000000000000000000000000100000000010000000000000100000000000000100000100000110000011000000000000000000100001000000000000001000010000010000100000000000001000000000000000000001000010001000001100000'
p80
aS'000000000110000000000000000001001000000101000000000010000000000101100001000100000100010000000000000000000000000000000001000100000000000100010000000000100000000000000000000000000000000001001000000000000000100001000000000000000000000000001010000000000000000000000000000000010100000000010000100011010010'
p81
aS'000000001000000000000000000000000000000000000000010000010000100100000000011000000000000000000000000010000000000100000000010000000000010000000000010000000000000000000000100010001000000001000000000100010000000000100000000000100000000000100000000010000000000000000000001000000100100000100000000000000000'
p82
aS'000000001000000000000000100000000000010000000000000000000000000000000000000000000000000000000000010000000000000000100000001000000000000000100100000000010000000000000001000001000000000000001000000000000000010000000000100000000000100000000000000000111000000000100110000000000000000000100000000000000000'
p83
aS'000000001000000000100000000000000001000000000000000001000000001010100000000000000000010001100000100000000000000000000000000000010010000000000000000000000000000000000010000000000000000000000000000000000000000100000000000010000010000000001000100000000000110000000010000000000001100110000000010100100000'
p84
aS'000000001000000010010100000000010001000000000000001100011000010100000001001000000000000000000100001000000110001000110100000010000001100000010000100000000000000000100000010011000000000000100110000100001100000010000001000100100010000001010000100000010000011000000000000000001000000010000000001100110000'
p85
aS'000000001000000100000000000100100000000000000000000000000000100001100010000000010000000000000000000000000000001000100000000001000000000000001000000001000000000000000001100100000000000000010000000000000000001000000000000000000000000001000000000000000000000101001010000011000000000000000000000000000000'
p86
aS'000000001000100000000001100101000000000000000001000000000100000000000010000010000000000000000100000000001000000000000000001010000000000000010010000000000010100000000000000000000000000100000000010000100001000100100000000000000000001000000000000010010000000000000000000000000100001000000000000001100000'
p87
aS'000000001000100010000010000001000101100001000000001000000000000010000100000100000000001000001000000000100000000000100100000000101000000000000000000000000000000000000100000010000000100110000000000000011000100000010000000000000000100000000000000000001000000000001000010000000000000000000000001000000000'
p88
aS'000000001001000000000110100000000100101000000000101000000000000000001000000000001000000000000000000001001000001000001000000000000000000100000000000000000000001000000000001000100010000000000000000000000000011000000000000000000000000000000100000000000000000000010001000000000000000011010000000000000000'
p89
aS'000000001100000000000100100100000000000010000000000001000000000100000000000000000000000010000000000000000011000000000000010000000010011000000000000000000000000000100000000000001000010000100010000000001011000000000000100000010110001100000000000010000001000010000001000000000000000001001000000000000100'
p90
aS'000000010000000000000000000001000000000001000000000000000011100000000000000000000000000000000100100000000001000000000000100000000000000010000000000100000000000000000000001000000000010000011000000110000001000000101000000000000000000000000000100000000000000010000000001000110000001000001010010000010100'
p91
aS'000000010000000000000001000000000100000000000000000000010000100000000001000000000001000000000000000000000000000100010000000010000000100001000010000000000000000000000100000000000000001000000000000100000000000000000000000010000000000000010001000000100001000100000000000001010010000000000000000000010000'
p92
aS'000000010000000000000001001000000000000000000000001000000000001001000010000000000000000001000000001000000001000000000000000000100000100000000010000000000000000000000000000000000001000001000000011000000000000000100100100000100100100001000010000000000010000000001001000100000010000000000000000000100000'
p93
aS'000000010000000001000000000000011000000000001000000000000000000010000001001010000010000000000000010000001000100001000001010000010110000010000000100001000000000000000010000000000100000000000000000000000000001010000000000000000110000000000000000000000000001000000000000000100000000000000000001000000000'
p94
aS'000000010000001000000000000000011000000000000000100000100000000001000000000000000000000000000000000000000000000000000100000100000000100000000000000000000000000000001000000010000000000000000000000000000000000011000000000000000000000000100000110000100001000000000000000000000000000000000000000000010101'
p95
aS'000000010000001000000000100000000000000000000110000000000000000000100000000000010000000100000000001100000000000000000000000000000000000000000100000000100000000000000001000000000100000000100000100100000000000000000000000001000000000000000000000100100000001000000000000001000000000000001000000100000000'
p96
aS'000000010001010000001000000000000000000000100010100001010000000000100000000000000100000000000110010000000000000000100000011000000000000010001000110000000000010000100000001000000000000000000100000010000000000010000000100010010000001000000010010100000000000000100000001000000000000000001000000000000000'
p97
aS'000000010010000000000000000000000010000000000000000101000000000000010000010000000000010000111000000000000000000010001001000010011000000000001000001000000000000000000000000000000000001010001000000000000001000000000000000100000010000000000011000100001001000001000000000000000000100001000100010000010000'
p98
aS'000000010110101000011100000000011010011010001001100001100101101110000010000111000010010111110101101000000001001110100000001000010110000100110001000000100000000000001000100001001001000001000101100100110000000110011000011011110011000101011000000001011000100010011000000010011000001000000001011000100100'
p99
aS'000000010111000110000111000000001110010010010010011110001101000011100010101110001001100001100000110011110001011011000001010000010010010111110100000100110000010000000100000111101100011011001011110110010010101011111011110100100000110110100100010010110000010010001101000000001000110011000000111011001001'
p100
aS'000000011000000010000000000000010000000000000010100000000000001000000000000001000000010000001000000000000001000001000000001000000000000000000000100000000100000100110000000010000100000000000001000010001000000000000000000000000000001000000000100000000000000000000010000100000000000000000000010010000000'
p101
aS'000000011000001001000000000000000010000100010000000000100000000010000000000000000000000000100000000000000000000000000000000000000000000100100000000000001000100000000000000000010001000000100000010000000001000001000000000000001000100000000000001000000010000010000000000000000011000000100000110000000000'
p102
aS'000000100000000000000000000000000000000000000000000000000000000000000000001000000010000110010100000000000000000000100000000000001000100000000001000000000000000000000000000000000000000000000000000000000010000000000001000000000000000101001100000100000001000000100000000000000100000000010110000011000010'
p103
aS'000000100000000000000000010100000000000000000100000010000000000001000000000000000000000000010001001000100010000000000000010000000000000010000010000000000100101011000001000000000000000000100000100000001000011000001000100000000000000010000010100000000000010100000000000001000000000000110000000000101000'
p104
aS'000000100000000000010101000000000000000000000001000001000000000000000000000100000000010000000000010000000000000000000000100000101000000000000000000000000010000000000000010000000000000000000000000000000000000000000010000000000000000100101000000000000001000001000001000000000000000011000100000000000001'
p105
aS'000000100000000001000000000100000000000000000001010000000000000000000000000000000100010000000000000000100000000000000000000000000000000000000000000010001000100001010000001000000000100000000000101000000000000100000000000010000001100000001001000000000000001100010000000001000000000000000100000000001000'
p106
aS'000000100000000010000100000000010010100000001000000000000000100000000000000000000100000000000001010000010000000010000000000010000000000000000010000000010000000010000000000000000000100000000000000010000001000000000010100000001010000100000000000000000000000000001010000000000000000000000000000000000000'
p107
aS'000000100000000100010010001000010000000000100000100000010101100000010000001010000000000010000000100010000000000000001000000000000000000000000000000000001001100000010000000010000000010100000011001100000110001000010000000110000001000000010001010000000000000000100000000000001000001000000000110010000000'
p108
aS'000000100000000101000000000000000000010000010000000110001000001000000000000001000000001000000000000100000000100001001000000001001001100000110000000001000000000000000000000000000001000000000000000100000000000000010000000000000001100000000000000000001000001000000000000000000000000011000000000000000000'
p109
aS'000000100000001000000000000001001010000000000000000000000000000000001000000011000101100001100110000001001000001001000010000000000000000000100000001010110000000000000000000000010100000010000100000000000000000000000000000010000001000000000000000000000100000001010001000000101000000000000001000000000000'
p110
aS'000000100001010000000000000000000000000100000000000000001000000000000000000000000000000000000000000000001100010100000000000000000000100110000000001000110001010010000001100000000000100100000001000001000000000100000000000000000100000000010000001010000000001000000001000000000000000001000100110000000000'
p111
aS'000000100001010000010000000000000000000000001001000000001000000000100000000010000100000000000001000000000010000000011000010000001000010000000000000000000100000000001000000000000100000010000000000000001000000001000000001000101000001010101001000101110000000001000000000000000000000000000000000000000000'
p112
aS'000000100010000000000000000000000000000001000000000000001000000011000000000000000000010000000000100000000010000000000000000000001001100100000000000000000000000000010010000000000000000000001000010000000000000000000000000000100000010000000000100010010000100000000000000001010010100000000000010000000000'
p113
aS'000000100010000010000000000000000100000000000000010000001000000000000000001000000010000000010000000000010100000010000000000000000000100000011010000000100000000000000000000100000000100000001000000000010000000000000000000010000000000000000000000000000000000110000000000001000000000000000110000000000000'
p114
aS'000000100101000001000000000100000000000000000000000100000000000000001100000010000100100000000000000000100000000000000000100100000010000000011000000010000000000000000000000001000100000000000000000000000000000010000000101010000000010000100001000001100000000000000000000000010000000000000000000010000000'
p115
aS'000000101000001000000010000000001000000000000000000000001000000010000000000000000000000000000000000000010000010000000000001010010000001000000000000000000000000000000100000001100000000000000000000100000000000000000000000100000001000000000000000001000000000100010000000000000000000100000000000000010000'
p116
aS'000000101100000110000000000000000000000000000000000000000000000000000000000000000100010010000000000100000000100000100000000100000010000000000000000001000000000000000001000000101000000000000000000000000000000000000010000000100000100000000000000000000000000000000000000000000000000000000001000000000000'
p117
aS'000000110000000100110010001000010000000000100000100000010111000010010000001010000000000010000010110010000000000000011000000000000000000101010000000000001001100010010000000010100000010100000011001100000110001000111100000110000001000100110001010000000010000100110000101000101010001000000000110011001000'
p118
aS'000001000000000000000000000001000000000100000000000010000000000000100000000000010000010000000101000000000100000000000000000000000000000000000001000000100000000001000000000000000000000000000000000000100000000000000010010000000001000000000000000100000000000000000000000000001000000000000000000000000000'
p119
aS'000001000000000000000000000010100000000010000010000010000000100000100110100011000000000100001000010000000000000000000100000000010000000000010010010000000000000000000000000000000000010000001000000001000000000000000000000000000010101000000000000000000010010100000000000010000001000000000000010000000000'
p120
aS'000001000000000000000000000100001000000000000000010010000000000000000100000000000100000000000000000000000000000010010000000001100000000100000000000110000001000001100000000000000000000000000000000010000000000001000000000001000000000100000100000000010000000100000000001000000000000001000000101000000000'
p121
aS'000001000000000000000000001000000000000000000000000000000000010000000100000000000010000000000000000100000000000000000000101101000000000000000000001000000000000000000000000010000000001000000000000000001001000010000001000000010000000000100000100000000000001000001000100000000000001000010101000000000000'
p122
aS'000001000000000000000000010000000000001000000100001000000000000000000101010100010000000000000000010000000000000000000000000000000000010010010000000100001000010100000100000000001000000000000000000000000011110000000101001000000000001000000000000010010000010000000000010000010100000000000010000000000000'
p123
aS'000001000000000000000001000010000000000001000000000000000000000010001000000000000000000000000010100000000100000000000000000000000000000010000000000001000000000100000000000010000000000001000100000100010000000010000000000000101000000000000000000000000010000000100000000000100000001000000100000000000000'
p124
aS'000001000000000000000001001000000000000000000000000000000001000000100010000000000010100000000000100010000000000010000010100000000100001010000000100000000000111000000000100111000011000000000100000000000000011000000000000000000000000000000010100000000000001000000000000010000011000010100000000000000010'
p125
aS'000001000000000100000000000010100000000000000000000010000100000000000000000000000000000000000000001000000000000000000000000000010001000000100000000000000000000000001000000000010000011000000000000000000000000000000100000000000000000000000000000001000010100000000000010000100010100100000001000000000000'
p126
aS'000001000000001000000000000001100000000000001001000010001100000000000000000000110000101000010000000000010000000000000000000000000000000001100000010100000100000000100000000010000000000000000000000000000000000001000000000000000000000000000000000000010000100000000000000000000010000000000000000000000100'
p127
aS'000001000000010010010100001000000000000000000101000010000000000000010000000000000000000000000000001000000100010001000000110000100000000000000000000000010000001000000000000000000000001000000000000000010001000000000000000010000000000000001000000000001100000000000000000000000000000000001110000000001010'
p128
aS'000001000001010000000000000000000000000000000000000000000000000000000000000000000000001000000010000000100100000000001000000000000000000000000100000000000100000100001000000001000000011000010001000100000100000000000001000001000000100000000000000000000001000000000000000100000000000000100000000000000000'
p129
aS'000001001000000000000000100000000000000000000001010000000001000000000000000001000000001100100000000000000000001000000000000000000000000000000000000001000000000001000000111000000000100000010000000000001000000000000001000000000000000000000000001000000011000001100010000000000100001000000000010100000000'
p130
aS'000001100000001000110010010111001100001011111010101101001010101011010011111000000101000000100001010100010000101001000011010000010000011010010000110101101101101000000110000100100010001010001101000010000110000100001010101000100100110110001100010110010000001010001001101001001100111010110100101001001111'
p131
aS'000001100101101000000110010000001000010000000000010000000000000000000000000000000000000000111000000000000100000000100010000001000100000000100001001010000000100000000000101000000010000100000110100000000000011000000000001001010100100000000000100000000000001000000000000000000000000100100000001000000100'
p132
aS'000010000000000000000010000000000000000000000000000000000000000001000000000000000000000010010000000010100000010000000000000000000000000010010000000000000000101010110000000000001000000100000001100000001001000000000000000000000000010000000000000100000110000001000101100000000000000000000000000000000000'
p133
aS'000010000000000000001000000000000010000000010000000001010001000000000000000000000000000000000000000000000000000000000100000000001000000010000001000100111100000000100000001000000000010000010000010000001010001010000000000000000000000000001001000000100000000000000000000100000000000000000000000000000001'
p134
aS'000010000000000000010000000000001000100000000110010100000000000000000000001000000000000000001000000000000010001010000000000000000000000000000000000000000000010101000000000000000000000000100001001000000000011000010000000000000000100000000100001000000000000000010000000000000010000000000100000000000000'
p135
aS'000010000000000000100000011000010000000001000000010000000000010000000000100000001000000100000000000010000010000000000010000000000001000000000000001100001000000001010000000001000000000000001000000000000000000000000010000000001000001000000000100000000000100000000000100000000000100000000000010000000010'
p136
aS'000010000000000000110100000000001000000000000000000000000000000000000000000100000000000000000000000000000000000000000000000000000000000000010000000000000000000100000000000000000000100000000000001001010000011000000000000000000000000000110000000000000000000000000000010000000001000000000000100000000000'
p137
aS'000010000000000010000000100000000000010000100000000000010000100000000000000000000000001000000101000010000000000010000000000000001110000100000000000100010000000000000000100100000100011000000000100000000001000000000011000010000000000000010011001001001000010001000000000100000000000000010000000000000000'
p138
aS'000010000000000100000001000000000000010001000000000000001001000000000000000000000000101000010000000000000000000000000000000100000101000000000000000000001100010100010100000000001110000000000000000000000000000000000001000000000100000000010000010000000000000000010000000000100000000000000000000000000000'
p139
aS'000010000000100000000010000001000000000001000000000000100000000100010000000000000000000000000010000000000010000010001000000000000000000000000000100000000010000010001011100001000000100000000000010010000000001001000000000010000000001000000001000000000000010000000000100000010000000000000001001000100000'
p140
aS'000010000000100001000000001000000000000100000000000000000000010001000000000000000000000001000000000000000001000000000000000001100100011000000000000000000000011000101000010000000000000010000000100010000000000000000010000100010000010001000000000000000000010000000000100000100000100000000000000100000000'
p141
aS'000010000010010000001001000000000000000000000000000000000000001000010000000010000000000000100001000001000000010000000010000001010000000000000010001000000000001100100000000001100000000000000000000100000000100000100000010000000000000000000000010000000000000000000000010000000001011000000010000000000010'
p142
aS'000010000010100001001100000101010000000010000000000000000001000010000000000000000000100100001000000000000000000100000000000000000000000100000000000000000100001000000001001000010000000000000000100001000000000001000010000000000000000100000100010000000000000000100000001000000001000000000000000000000000'
p143
aS'000010000100000000000000000000100000000000001000000000000000100000000000000000000100000101000000010001000000000001001000010000000000000000000000000000000010010100100100000000000000001000000001010000000000000000000000000000000000010000010000000000000101000001000000000010000000000000000001000000100001'
p144
aS'000010000100000000011000000010110000000000000000000000000000000000000000001000000000000000110001000001000001000000000000000000000000000000000001001000001000000000000000000000000000000000010000010000000000000000000000000000000000000010000100000000000000000000000000001101010000000000010100000000000000'
p145
aS'000010000101100010000000000000000000000000000101000000000000000000000000100000000000000001100000000100001000000000000000000110000000010000001000100000001000000000001000010000000000001000000000011100000000000000000000001000000100000000000000010000000010000000010000000000000001000010000000000100000010'
p146
aS'000010010110100000000110100000011000100000000000011000010001000001000000101000000011011100000100011000000100011001110011000011001001100000110010000000001001000000100010010000001000000010100001000010001100100000100001000100100001001001000000100101001011101101100110000000101000000010000000000111110000'
p147
aS'000010100000000000000000000000000000000010000100000010000001000000000000001000000000000010100100000100000000000000001100100000100000000000000000010000000110000000001000000000010000000000000000000000000100000000000000010000000010000000100000100001000000010000000000000000000000000000000010100000000000'
p148
aS'000010100000000000000000000000010000010001000000000010000000000000001000001000000000000000100000000000000000000000011000000000000000000000000000000000000000000000000000010000000000010100000000000000000001010000000000000000000000000000100010001000100000000000000110000000011100000000001000100000000000'
p149
aS'000010100000010000101000100100000000000001000000001000100000000000000000110100000000100000000000000000000000100010000000000010000000000000000000000000000000000000001000000100000000000000000010010000001000001000000001000000000000000000000000000000100000000001001000000101000000000000000000000000000000'
p150
aS'000010110000100100001100001010011111001011000101100001101011001110000001101111001000011111010100001000110001111110110001011000010100011001111001100000010010101000001110100100110010001010101001110101000101101100001011011010010001000001011001000001110011011010011011010001010010001010110001111100100101'
p151
aS'000010110100010100101011111101000100001010010110111100000010010111111111011110100101000010100001000100000000000100000010010000000110001000101000100110111110001000000010000000001010000110001001100011010011010001001011101100100000100010001010100111100100001100011000000000001100101010101000010010010011'
p152
aS'000011010011001100111010110010111101011100000100001001001101011011000010001111100001100000110000000111100001000101111111110100000111000000100100100110111111000001100110111111100010011001001001000111011010110010011001101010011001010111000001000011100010000100010001010000011001101010000000011000100101'
p153
aS'000100000000000000000000000000000000000000000000010000000000000000000000000000000000000000000000000000100000000000001000000000000001000000000001000000000001100000000000000000000000100100000000000000110010001000000000000010000000000100000000000000000100100100000000000001000000000000010000010000000000'
p154
aS'000100000000000000000000000000000000000000001000110000000010001000000000100000100000000000000100000010000000000000000000000000001001000000000000000100000001000000000000110100000000011000000000000000010001000100000110001000000010000000000000001010000101000000000010000010000000010100000000000000000000'
p155
aS'000100000000000000000000000000000000000000100000000000000100010000000000000000000000000000000000010001000000000000001010100000000000000000000100001000001000000000000000000100000000000000000000100000000000000000100000000000000000100000010000100000000000000110100000000000100001000000000100000000000100'
p156
aS'000100000000000000000000000100000010100000000000000110000100000000000010000000000010111000001000001000000001000101000000000000100000010000000000000100000000000000000000000000000000000110000011010000000000000010010000000001001001000000000000000000100000010001000000000101100100000000000000000000100000'
p157
aS'000100000000000000000010000000000000000000000000010000000010000000000000001000001101000000100000000000000000100000000000010000001000001010000000000000000000000010000000000000010000000001000000000000010000000000000000001100100000000000000001000001000000100100000000000000000000010001000010000000000000'
p158
aS'000100000000000000011000000000000000000001000000000000000000000000001001000000000000000000100010000000000000000100001000000001000001100000000000000000000000010000000000000000000000000101000000000000010000000000010000000101000000000000010000000000101000000000000000110010000001000000000000000000100000'
p159
aS'000100000000000001001001000010000000000000000001000000000000000000000000000000000000000000000000000000000000000000001000000000000000000001011000000001000000000100000000100000100000000000000000100100000000000100000001000010000100000010000010000000000000111000000101100001000000000000000100000100000000'
p160
aS'000100000000000100000000000000000000011000010000000100000000100000000001100010000000100000001000000000000000000001000001000000100000010000000010000000000010000000000000010000000001000001000001000000000100000000000001100000001000000001000000000000000000000000100000101000000100100000000000001100001100'
p161
aS'000100000000001000011000001000000010000100001010010000000000000000000010000010000000000000000000000001000010001010000000000000011000000000000010000000000000000100000010000000000000000000000000100000000000000000000100001000000000100000000000001000000010010000100000000000000001010000000000000110000000'
p162
aS'000100000001000000000001000000000001000000000000000001010001001100001000000001001000000000000000000000000000010000000000000000000010000010000000000001010000100000000000000000000000000000001000000010000110000100000000011000000000010000000000000000000000000100000000000000000010000010000000001000000000'
p163
aS'000100000100000000000000010000000000000100000001000000000000000000001100000000001000000010000000000000000000010000100010001000000000000000000000000000000000000000010010000000000000010100001010000000000000000000000000000000000000000100000000001000000001000000000010000000000000010000100000001000000000'
p164
aS'000100000100001110000000001010000001001100000001000100000000000000000001000000000000000000000000000000100000000001000000000000000000000000000000000001100010000001000000000000000000000000000000000000000000010010000000000000000100000000000100110000000000100000100000000010000000000000000000010000000000'
p165
aS'000100001010100000000000000110000010001000001000000000000000000000001100000000100000000000101000000000000000001000000000000000000000010000101010100000000010000000000001000010000000000000100100001000000000000000000001000100000000000001000000000000000010000000000000000000000000000000000000000000001110'
p166
aS'000100011001011011000101100010111000001001100100100010000000000100111100010110001000011100000000111001110100101010000101000000101010011101001001000001011100000100001000100010111110100000000010110100100001100100001100010100000110101010111010101000000000111111101100010110000100111011010000110000011001'
p167
aS'000101000000000000000000100111000000000000000000100000100110010010000000000000010000001000000000001000100010000001000000001000000000000000010000100000000000010000000000000000010000000000000000000000000000000000000000000000000000000000000000010000001110000000000010000000000000000010000000001000000000'
p168
aS'000101001001000010000010000000000000001000000010001000010110000000000010010000100110001100000100000000000000001000001010000000000001000001000000000000000100000010100110110000000100010010100000010000000000000100000000010000000100000010000000000111000010001000001110000010000001000101110110000000010000'
p169
aS'000101001001000010000111000000000010001010010010001000010110000000000010010000100110001100000100010010000000001000011010000100000101000001000000000000000100100111100110110000000101010010100000010000000000001100001000010000000100001010001000000111000010101100001110011010000001000101111110000000010000'
p170
aS'000101001001000110101101000000000010011010010000000100001110000000000001000101000110011100000101010011100000001000011010000100100100000001000100010010000100111111001100110100010001010001000000010000100000101000001110010000000100011100001010101101000010111100001100011000100010000011011010000000010010'
p171
aS'000101010010101100000111001000011111001010010011000010000110000000100001101111000101001101111001001011111001011110000001011000110110001011111101000011111000101000000111110111100010001110011101011100000110100000111011011010010001000001011100000001100110011010011011000001010000101010000001111100110011'
p172
aS'000101100101100001101000110000100000110100110011001100011000010011011010000001010111100010010011000100000100000000101010101100000100100001001100100110100100000110101000001010000100110000101000000111100000010001001100101101001000001010100011100011101101100101000000100010000000010101001000100110110010'
p173
aS'000101110011011100101100111111000000101110110011100101110000010100111111011000000101000011001001001110111011011010001000010000101010011001111100100011101101001100001011001100000110000110011010101110000100011000000011001110010001001011101010011101101100001010000011100000000100001001111000000010110011'
p174
aS'000110000001000000000000001001000100000000000000010100001100000100010000000010100000000000000000000000001000000000000000010001000010000000000000000000100000010000000000000000000000000000000010000010000000100100000000000000000000000000000100000000010001000000001000000000010000010000000100001000000000'
p175
aS'000110010011000100000110000000011000111110000011000100110110000100001000100001000101000100101001111010111011011010101000011000110110000000100100000010010000101000000110111111000100000111001110011100000101110100011011001110010001001001011001010001001111111110001011100001000010101000100100010100100011'
p176
aS'000110110001010000000000100010010000010000000000001110011010010011001010000001010001000000000110000010000000000000010000000100000101100100000000001110001010000100000000001000100010111000001000000010001000010000000001000001010000010010010110100000001000000100010000001100000000000000000010000100110000'
p177
aS'000110110011000100010100101000010010110111010010000101111110010001000011001001110010100110010001000010110011010101111000001101010011100001110110000010011010100000100101111101100000111000101000011101000100111010001000001000001001001011011001010001101111011110010011100001010010010011100101000110100011'
p178
aS'000110111111010000101000100000110000110110000001100000110000010011011100010001110010000100000010100001100110000100111100101101100101100000001100000110010101000110100001011111000100110000100000001101101101010000100100000101001001011110100011101001101111100101010010100110100011000100000001000110100110'
p179
aS'000111000000100000010000010000000000000000000001000010000001010000000100000000000000000000000000000001000000000000000001001000000100011010000000000010100000000000100000001101000100000000000000000000010000100000000000100000000000000000000000000000000000000000100000000000000000000100000000000000000000'
p180
aS'000111011010011000100011110000001000011011001001001101100110010101111111010001110101100100000101110100010010000000000010001010010100000011000000101001000100011000000001010101001110110000000000101011110101000111010000101101001100010010011110110111111100101101001101100000001100110000101101110100011000'
p181
aS'001000000000000000000000000000000000000000001011001000000000000010100011000000000000001000010000000000000001000110000000000000100000000000000000000000000010010010000000000010000000100000000000001001000001000010000000100010100000100000000100000100000000001010000010100000001001000000000010000000100000'
p182
aS'001000000000000000000000001000000000000000000000000100000001110000000100001100000010000000000000000010000000010000000000000000000000010000010110000000000000000100000100010000000000000000000001000000100000000100000000000001000000000000000010000000010000001000000000000000000000000010100000000000000010'
p183
aS'001000000000000000001000000100000010100000000000000000000000100100010001010001000000000000000000000001100010000000000000010100000000100110100000000000000001000001000100000000000000010000000110001000001000100000001000000000000000001001000100000000100110000010100010000000000000000000000001000000000000'
p184
aS'001000000000000100000000100100000000000101000100000000100000010001000000000000001000000100000010001000000000100000000000000100000000000001000001000000001000000000000000000000001000000011001000000001101000000000010000100000000000000000000000000000000000000000010000000000100000100100000000000000000000'
p185
aS'001000000000001000000000000000000000010000000001000000001000000000001000000000000000000000010000000000000000000000010100000000000011000000101000000100000000001000000001000000010010000000000000000101000000000001000000000010000000000000000000000000001000000000010001000000010000001000000100001010000000'
p186
aS'001000000000001000000000001000100100000000000000000000001000000000000000000000000010101011000000011010000000100000001000000000000000000001110000100000000000000100000000011100000000000000000000000100001000100000000000100000000000000000000000010100000000000000000000000000000000000000000000000010000000'
p187
aS'001000000000100000010000000000010000000000000000000000001000000000000000000000000011000010000000000000000000000100000000000000000100000000000000000000100000000000000000000000010000000000000000000000000000000000000000000001000000010000010000000000000100000000000000000000000000000000000000000000000000'
p188
aS'001000000000100001000000100000010000000100000000100000000000000100000000000000001011000011000001000010000000000100000000000000000000000010000010100000000000000000000000000000000100000000010000000000000000000000100010000001001100000000000000000000000000000000001010001000001000000000010000000000001001'
p189
aS'001000000000100001000000101000010000000100000100000000000000010000000010000010000001100000000001010010000000000001000001000010010000000100000000000000000000000000000001000010000101000100100000000010000001000000000010000000001000000000000000001001000000000000000000000000000000000100010000100000000000'
p190
aS'001000000000100001110000010001100001011001110000100000000100001000000100011000100100011010000000000000100000100010000101000000000001000000001000001010100010000011101010011000010000000000010100000100100000000000000000011000100010000010001000000000000010010100011000000001100111000101110000000000001000'
p191
aS'001000000001000000001100000001100000000000000000000000000010010000001000010000000101000000101110000001000000000000000000000000000000000001000000000000000000101001000000010000001110000000000000000000000000000001100000000000100000000000000000000000000001000000000000000000100000010100000000000001100000'
p192
aS'001000010000000110000100100100000000111010100110000100000100000100101100010111001000000011000000100010011101111010010000000000001010001101110100000000010000000000001100000100010000000011000010011100100000000000001101000010001000000010011000000011100100010110000010000010000000000000011000110000011011'
p193
aS'001000010010000011000111001111001000001111100011010111100011001110100011100010011010111001110100010011011011111111101001001010011000011111110001010000000000111100000000100100111010110110100110111100000100001100011001111110100000100001011100010100010000100010101010001001010010001000111001111010001110'
p194
aS'001000100100001000000000000000000011000010001000000000000000000000000000000001100000000000010000000101000001010010000001000000000001000000000000001000000010001001001000000010000000100000000000010010000000000000010100010000110000000000000001000000001010000000100100000010011000000010000000001000100000'
p195
aS'001001000000010000000011000010000000000000000010001000000000001010000000010001000000000000001000000000110000000000000000000000000010001000000000010100100010010000010000000000100000000000010011010000010000001000000010000000000000000000010000001001010000000011001000101100010000000001000000110110010000'
p196
aS'001001000000010000000011000010000000000000100010001000000000001010000000010001000000000000001000000000110000000000000000000000000010001100000000010100100010010000010000000000100000000000010011010000010000001000000010000000000000000000010000001001010000000011001000101100010000000001000000110100010000'
p197
aS'001001001010000001000000100001000000000000000000000000100000100100010010010001001000010000000000000001000100100100100000001000100100100000000000100000000000110100101000000110100110100000110001100001000011110010000000000100000000000110000011000011000001000000001010010001001000011000001000010100010000'
p198
aS'001001001010000001100000000000000000001000011000000000100000110000010010010001001000010000000000100001000100000000100000001000100100100000000000100000000000100000001000010110100110101000100001100001000011010000000000001100000000000110000011000001000001010000001010000001000000011000000000010100010000'
p199
aS'001001101101011000101000111111110000111000101100001100111000110001111101010001110110100110010010100100100100100000010110110101101101100101101100001111101101000110111001001010000100110001001000100011111001010001100100000101011110011110100011101100001111101101000100101110100111000101000001100111100010'
p200
aS'001001101101111000100000100110010010000000101101100001010101111001110011010010010010000010001010101000000001001000000010000011001001010001010001000001101101010000011001000000000001000000101001000011110000000010001100010011000111000110100000011100001000101001100000001010001100110010100000001101000100'
p201
aS'001010010000100100000110001000011110000010000000100010101110000000000000101100001001011101100000011010111001111111000001010000010010010010110110010000010000111001010111100110100000001110111111011100000111101100111010010010110001110001011100000000010000011010001011011001011000111000110001111000001001'
p202
aS'001011001000000000000000000000000001000000010010000000000000000000000000000000000000100000010000000000000001000000010000101000000000000000000011001000000000000001000000000000000011000001000000000000100010000000010000010000000000110001100000010100000000000001000000000010000000100000000000000000000100'
p203
aS'001100011000011000001000011111001000010010100001000100110010100101111011010001110010001000010100110100000011101000101010001010000000011111001000010011100001001110101000001100000110100100000010001110100101010100000100010100001100001000011111011110011101101001101011101101000110000100110000000101001110'
p204
aS'001100101011100001101000111010100000110100101101100100110000010110011100000001010100101100010110110110001110000000111100101110101111100000101000000101100001000110111000001100001100111000100000001100110100010100000100000001011000001000100111100111001111100101110000111110100010000100001010100100001110'
p205
aS'001100110010000001110000000000101000000110101001000001111110001011010011100001010100000100010001010100000010001101101001111010010101000000001001010000000001000010100001001101011011101000100100000000000100010110010100010000001100011001011101010011011111000000110011101100010010000000000000010101100110'
p206
aS'001110011011000100000110101000001000110110100011000100110100000101001000100001011100100100101001110010111011011010101000001000111110001010100100000010010000110000000001011111000100110100000010001101100001010000010100000100110001001010011001010001001101111100001011100001100010000100000000010110100011'
p207
aS'010000000000000000000000000000001000100000000000000000000000000100000000000000001100100000000101001010000100000000000100000000000001000000000000000000010000000000000000000000000000100000010110000000000000000000000000000000000000001000000000001000000000001000000000000000000100000000000000100000000000'
p208
aS'010000000000000000000000011100000000000001000000001001000000000000000000000100000001001000000100100000100000000100000000000100100000000000000010000000000000110000000010100100000000000010000000000000000000000000000000000100000000000000110000000110010000000000001000010000010000010000000010100001000000'
p209
aS'010000000000000000000001000000000000100010100000000000000010000000000010000000000000000000000001000000000000001000000010000000100001000010000001000000100000000000001010000000010000000100000010000000000000000000000000000010000001000000001000000010000100100000000000000000000000000000100010000000000100'
p210
aS'010000000000000000000010000000000000000010000000000010010100111000000000000010000000000000000000000101000000001000000000000100000001010000000000000001000010000000000000000000000000000001000000000000000000000000010000010000000000000000000100000000010010000000000000000000000000000000010000000101000000'
p211
aS'010000000000000000000010001000001011000010010000000011010001000000110000001010000000000001100000010000010000010000000000000000000000011100000000010000000010010000001001000000000010000000000010000000000000000010000000011111100000000001001000000010000001000010001000000100000011000000001010000000000000'
p212
aS'010000000000000010100000110000100100010000001000001100000000000000000000000000000000000000010000000001010000000100000000000100000111000000000000000000000000000000000001000000000010000000010000000000000000010010000000000001000000000000000000001000000000000010001000100000000000001000000000000001000010'
p213
aS'010000000000010000010000000000001100000000000000100000000100000000001100000000110011010000000000000000000010000000000000000010011001100000000000000000000100000000000000000000000001000100001000000010000000000000001000000001000000000000100000010001010100100000000000000100000000000001000010000000000010'
p214
aS'010000000000010001000000001000000000001010000000000000000000000000010000100000000000000010000000000000000100000000010100010010000101010000001000000000000001000000000000100100000000000000100000000000000000010000000000110010000000000100000100000000000000000100000000000000000010000010001000000010100000'
p215
aS'010000000000100001000000001000100000010000010001000000001000010000000000000000000000000010000000100000100000000000000001000000000000001000100000000000000000000000000000000000000000000000000100001000000000000000001000000000001000000000100000000000000000000000000001000000000000100000000000000000000000'
p216
aS'010000000010000000000000100000100000000000000000000110000000000000000000000010000000000000001001000000000000000000000001100101000001000000000001000000000100000000010000000100000000000000100000000100000001000000010001000000000010000000000001000000001010101001000000010000000000000100000100000000100000'
p217
aS'010000000010000100001011000000000010000001000000000000000000000010000000000000000000010001000000000100000000000110000000100000000000000000001000000010001000000000000001000000000000000000000000000101000000000000000000000001000000000100000000000000000000000000000011010000000000001000000000001100000000'
p218
aS'010000000100000000000000011000000100100000000000011000000000000000000000000000000000001000000010000000001001100000010000000100010000100000010000010000000000000000000000000010001000000000000000000000000000001000010100010000000000110000000000000000000010011000000000100000000000000000000000000000000000'
p219
aS'010000001000000000000000000000000100000000010000000000100000100000000010000010000110000000001000000000001000000010000100000000000111000000000010000000000000000000010010000000010000000100000000000000000000000000000000000110000000000100000010000000010000000001000000000001100000010000000000000000010000'
p220
aS'010000001000100010000000000010000001000010000000000100000000000000000001000000000000001000000000000000000010010000000010000000000000001000000000100000000000000000000100100000100100000000000010000000000000010000010000000000000010100000010000001010100000000000100100010000000001000000010000000000001000'
p221
aS'010000010000000000100000000000100100000000000000000100000000000010000000000100000000010000000000000000000010001100010000001000000010000000000000001000000000100010000001000000000000000000010000000001110000000001000100000001000010000000000010000000000001010000000001000000000000000000000000000000000000'
p222
aS'010000010000001000000100000000010001000000001000000000000000000001000000100001000000000000000010000000001001101000000000010010000000000000100001010000000100000000000000000101000110000000001010101000000001000100000000000000001000010001000000000000010001000001000000000001000000001010000000000001000100'
p223
aS'010000100010101001001000000000000100000100000100001000000000000000000000010000000001000000010000000000100000010001000001000000000000100000000000100001000001000000000000001000000000000000010000000000000001010000000000000100000000010000000000000000000000000000000000000000101000000101100000000000000000'
p224
aS'010001100001000000000000000000001000100100001000000000001100000001110000000000000000000000000000001000010000000000000000000001000000000000000000000000000000000100000000000000000000000010100001000000100000000000000010001000000000000000001000100000000000000000000010000011000000000000000001000000000000'
p225
aS'010001111000110100001101011011110100001000101110101000100011000100011101010010001101011101010101101000011101011100010110010000001100011001111011100000100110101010011110100000110011000110110101110010010111100100001011001011010001000001011001101101100000010011010110010000010110001000111011100000010110'
p226
aS'010010000000000000010100000001011101000010000000000000001001000110000000010000110100000000010000000000000001000000000000000000000000000100001000000000000000000100100100000000100100000000000000000000000000000000100000000000000000000001100100100000000110000000011010001000000000000001100000000000001000'
p227
aS'010010000011000000000100001000000010000010000001001000010000000100000000000000101000000000000000000010100001000100000001000000000010000000000000000000000000000000000000000010010010000000000100000000000100100000000100000000000000011000000001000000011000010000000000000010100000000000000000000000000000'
p228
aS'010010010100000000000010100001101000011100010000000000010001000001000000001000010000000000000000010100000000100101000010000000010000001000000000000000001001010110000010001000010000001010010000000010001001100000001010110000000000001001000000100110001010100100100001010010100000000000001000000010000000'
p229
aS'010010010100100000000010000000101000111100011000000000010001000001000000101000010011001100000000010100000000110001000011000001011000000000100010000000001000000000000010000000011000001010000000000010001001000000100010111000000001001001000000000101001010100101100101000010100000000000000000000011100000'
p230
aS'010010100001110100001110110010100100001000010110001100000101010011111110000110100001110110010001000110001100000100000000010000011110100001100000100001110010000000001011000100000010010011001100100011110010000000101001001001111010100110100011000011100100000100000100011010001100110101001000101010110011'
p231
aS'010100000000000000110000000000100000000000000000110000001000000000000100000000001000010000000000000000000000001000000001000000000000000000000101000001000010000000000000100000101001000000000000000000000100000000000100000000001000000000010000000000000000000000000000000000000000000000000000010000010010'
p232
aS'010100000000000010000000000000000000000000000100000000000000000000000000000000000000000000000000010000000100000000000001000000000000000000001000000010000000000000000000000000000000000001000100000000010000000001100000001000000000000010010000000000101000010000000100000000000100100100100000000000000000'
p233
aS'010100001101000000000000100010010000010010000010000100110100000111101110000000010010100000100001100000011001000000000100001100000001000010000110000100100010010010111010001001000101110110000000000001000010000000000100101100100000010110000001000001100000000010010100000000001000100000000010100011100010'
p234
aS'010100010010000000000000000000000000000000000000000010000010001000001000000000000110100001000000000010001000000001000000000001000000000000000001000000000000000000000000010000000000000000000000010000000000000000000000000000010010000000000000000100001000001000100000000000000100010000000100000000000000'
p235
aS'010100010010100100001100011001001000111110001011001100100100000100000000100001000101010101111101101000111110000011001000111000110100100000101000100010100000001111000010111011000000010101000100101100010101010001111011011111010001011001011011100101001111000100001001100000100010000000001100000110101110'
p236
aS'011000000000001000000000000000000000000000001000000000000110000000000000000001100000100010010000100001000000000000100110000010000000000000000000101000000001000000000100000000000000010000100000000000001000100000000000000000000000000000000001000000000101000000000000000100010000101000100000100000000010'
p237
aS'011000000010100000001000000000100000000000010100000000000000000000000001101000100000000000000000000100000001000000000110000000000000000000000000000000110100000000100000000000001000000000010000001000000000000000000000000110000000000000000001000000100000000000000011100001000000001000000001000100000000'
p238
aS'011000101100110010000000011110000100001001100010101101000001111100111111010000011010111010010100110110001110100000000010100010011000011111010001111001000001111100011000000000110011000110000110001010100000000101100100010101001110100000110110110110010000101001101100001111100100110001110000100001001110'
p239
aS'011000110101100110000110001110001111100011100110010110000101000100100000101110001111110011101000011011111001111011010000000011010010111111110111010010111001110001011101100100100000000111011010111100001010101000111111110010110001100011011100000000110000010010011111101001011000111001111001111011001011'
p240
aS'011001000000000100000000000000000000100000000000100000001000000000001000001010000000000011000100110000001000100000000000000000000000000100100000100000011010010000010100010000001000000000000000000100000000001000001000000000000100000011100000010000000000100000000000000000000010001000000010010000000000'
p241
aS'011001011100000001100000000001101000011100011000010000000000110000010000000000011000010000000000100100000100100100000000000000110000101000010000100000000001010110010010001000110000101000010000100000000001110000001010111100000000001110000000000110000000110000000011010010000000001000001000010110000000'
p242
aS'011100100101010010100010101111100010110010100010011110011101100101100110100100011011100010100010110011011110100010000000100111011010110111110100010101100000010110111000001011001101111011011110111010101010001001100100110101101010111110100100010110101100111101101100101110101000110101000000101011001010'
p243
aS'011110101001100000000000001100001010100111101001100011110110000100001001110000011110111101001100111010011011111010001000001011110000111100110001010010000000111110011001010100010100100100100110011101100101001100100000010011000101001000011001010100011111011111101011101101000010011001110001000111001010'
p244
aS'100000000000000000000000000000010100000100000100000000000000000000000000000000000000000001000000001000001100000000000000000000000000000000010000000110000010000100001000010000001000000000000000000001000010000000000010001001000001000000010000000000101000000010000001000100000000000000000001000010000000'
p245
aS'100000000000000000000000001000000010000000000010000000000000000000000000000000000010100000000000000000000000001101001100000000000000001101000001000000100000000000100000000001000000000000000000000000000000100000000001001000000000000000000000100000000000000000000000010011000000000000000000000000010000'
p246
aS'100000000000000000000000010100001101000000001000100000100000000000000000010000000000000000000000000000000000000000000110000000101000000001000000010100000000000000000100000000000000000000000000000000000101000000000000000000000001000000000000000010000000000010000100000000000000000000000101001000000110'
p247
aS'100000000000000000000100010000000000001000000000000000000011111000000000000001000000000000000000001100000000000000000000100000000000000000000000010000000000000000000000000000000010001000100100001000011100010000000000000100010000000010000000000000000000000000000000000100000000000000000000010000000000'
p248
aS'100000000000001000001010000000000000000100010000010000000000001000000000000000000010010001000000000000000000000000001100010100000000000000000100000100000000000000000111000000000100000011001000000000000000000101100000001000000000000000000010000000000000010001001000001000000000100000010000000001010000'
p249
aS'100000000000010000000000000001001000100000001000001001000100010000000010000000000000000000000110000000000000010000000000000000000000000010001000000001000001000000000000001000000001000000000000000000000000101000100000000000001000000100100100000000001000000000000000000000100000000010001010000000000000'
p250
aS'100000000000011000000000100000100000000001000000000000100000011100000000000010000000000000010000000000001000001000000010010000000000000000000100000000010001000100000000000000000001000000000101000000000000000010000000000000100000000000000000000000001000000000000001100000000000000000001000000000000000'
p251
aS'100000000000011000000010000000000000010100010000000100100011000000000000000000000000000000000000000100001000000000000000000000000000000100000001100000100000000100000000000000000000000101100001000000000010000000000000100000001000100000000000000000000000000100000010000000000000010000000000100000010000'
p252
aS'100000000000100010000000000000000100000000000000000000100000000000000000000001011000000000000001001000100001000000000001000101000000000000000000100000001001001000001000000000000000000001000000000000000000000000000000000000000000000000000000000000000000000000010001010001000000000001000000001000000001'
p253
aS'100000000000100010000011000000000100100001010100000000000001000100000000000000000000100000000000000000000000000010000100000001000000000000000000000000000000000000001000000000000000000000000000000000100100000010000000100001001000100010000100000001000010100000000100000000000000000000000000100000000000'
p254
aS'100000001000010000000000000100010011010000000000000000000000000100000000001000100100000010000001001001001000100001101001000010000111000000000000000000000000000000010100000010000100000001000000000000000000000000000100100000000000001000100110001010000100000000000100000000000100001000010000100000000000'
p255
aS'100000001000111001111000110000110100011000101100100000111010110000011100110001100000001100010010101101100100000000010110110100100101100000001010101001000110001010101010011010011100111000100101100010010101000001100000000001011110011110100011101000001111110101000100010110000111010100000010000100000100'
p256
aS'100000010000000000000001000001000000000000000010000000000000000000010011000000101000000000010100000000000000010000000000000000000000000000000000000000001000100001001000100000000000001000000000000000001000010100100000000000100000000000010000011000000000000000000000000000010001000100000000100000000000'
p257
aS'100000010000000100000000101010000010100000100001010000000001000110000001100000011001100000100101000010010000000100101010010011100110100000001111100000011100010000000000000001100001010110000000000000001000000110000011001000010000000000010010000100000000100000100010011000011001011000010001010000100001'
p258
aS'100000011010000000000000000000000001000010010001000000000000000000000000000000100000100000000100000000100000011000000001010001000000000000000000000010000001010000000000000000000000000000000000000000000000000000011010000000000000000000000000000000000000010000100001000000000001000001001000000000000000'
p259
aS'100000110010000000001000000000001000010111000000000000100000011000010000000100000000001001000100100001000000000101110010100000010100010000000000001000001001110001010000000010000000000001100000000010000100100000000000111001011000000000000001000001011000000010110000000000000000001000001001000000000111'
p260
aS'100001000100011010111000010011110011010001000000011110001001111011110010001100110110010011100010000100100000000101110111110111001001110111000111011101101111001001100100101001001001001001010001100000011010111011100001010010011010010111100000001000000010000101010100011000011001000010000011001001100100'
p261
aS'100001001000111001100001010111010100001000101100101000000010110000011101010001100000001000010110101100000110000000000110110110101100100000001000101001101111001010111010000000011111100000000101100010111101000101000000000001001110011100100010101100000010101101100100010100101101101010110110000001011100'
p262
aS'100001100001110001101100100010110111101001100110101110000001010110010100000110001100111011001110000111010100111010010100000101001010111101110011101100101110000100001000100100011010010010011011110100011010101100101001000011110010101010110000001000100010110110110100011110010001011111011001111010011001'
p263
aS'100001110100011100111010110010110111011000000000001110011000110011110001011101100001000110110000000100100000100101000111010000000000000011011111000101111101000000100111100111100000001010011001010011010010100010001000000000001100010111000100001010100000011111010101011001011100111010100000101000100011'
p264
aS'100010000000000000000000010100000000000000000000000000000000000000000010000000000000000100000000001100000000000000001000000010000000000000001100001000000000000000010100000010000010000000000000000000001100001001000100001000000101000000000000000000000000000000001000000000000000000000000000000001000001'
p265
aS'100010110100000000000000000000000010000000000010000000000000001000000100000001000000000000010000000000000000000000000000000000100000001000000100000100000100000100000000000000011000000000000010010001000000000000000100000000010001000000100000100000000001000000000000000011000000000001000001000000001100'
p266
aS'100011000000000000000011000000010100000001000000001000000000000000000000000000001010000000000010000000000000000100000000000000000000000001000000000000000001000000000000001000000000001010010000000000000000000100010000100100010000001000000100000000000000001000000001000100000000000010000001000000110000'
p267
aS'100011010110000000000000110000100000001101100111000001101011011011000010000001010000010101010111000000000000100101111001000101001100111100001001101000010110001101010000110100110011010000100010100011011100010011010001101000011100000000010001110101010010000010010010010100011001001010001001010010100101'
p268
aS'100011101101111000110000100000110111110001001100101011011010111011000010001101110010100110000010001101100100000101010111010101000001110000001011001100011110001001110101011101000010011000101001000011011110010011000000100000000111011110100001101001100011000101010100010000101101010010000000000111100101'
p269
aS'100100001010011001110011000000001000000000001000000000100110101000111111000000111000100100000110010000000010000001000011001010000001000010001000010001000000010010100000000001011101101000100001010000100100000110010000010100001100010000000100011000011001000000101000000100001000100000010110000101000000'
p270
aS'100100010000000001000000000000000101100000000010000000000010000000000000000000100001010000000100000000010010000000000000101000000000000000000000000000100000000010001000000000010000011010000000000100000000000010001000000001100000000000000000000000010000000000100000000000000000000100010100000100001000'
p271
aS'100101100101000001000000000000000000010000000000000000000000000000000000000000000000001000000010000000000000001000100010101000000100000000000100001110100100000000001000001010100000000000000111000010000000010000000100100101000100000100000000100000000000000001000000000000000000000100100000000100000000'
p272
aS'100110000000010000000101000100000000000000000000000000000000000000010000100000010001100000001000000000000000000000100001000000100100000000000000000001000000000000000010010000000000101000000100000000000000000011000010010001000000100000000000000000000101100000000000000000000000000000000000000000001000'
p273
aS'100110001000110000100100000000010100001101011110101111100010111000011111010000001001001100000110001100000100100001010011000000000101100001001000101000000110111010011010010000111110000010100101110010110101100101101010101001000101101001000010101100010010110101001101010101001111111010110100000000001000'
p274
aS'100111000010000000110000000000000001000000101001000111101110100001010000100000101110000101101010001000100011011101000100001011010001000000011010000010011000101011100101010101001001001010100001001001000100001010000001010001010001010001000000011000010011000100010011010000011011001000100110000111100100'
p275
aS'101000000000000000000000000000000001000000000000000000000000010001000001010010001000000000000000000100000000100000000010000000000000010000010000000010000000000000010100000010000001000001100010000000010010000000000000000000000000000000010000001000000000000000000000000000000000001000000000001011010100'
p276
aS'101000000000000000001000000000000000100010000000010000000000100000000000000000000000000000000000000000000010000000000000000000000000000000100000010111000000000001010000000000000000000010000000000000100100001100000000100010001000000001000010110100000000000000000000000000000000000001000000000000000000'
p277
aS'101000000000000000100000000100000000000010000000010000000011000000000000000000000000000000000100010000001000010000100010000000000000000000001000100100100000010100001000000000000000000000000000000000010000000001000011000000000000000010000000000000000100010000010000000000000010001000000000000000000000'
p278
aS'101000000001100101110000111010100010111001110001110000000100001000000100111000100100011010000000000000100000100110000101010000000001000000000000001010100010010011101010011000110000000010010100000100101000000010000010010000110010000010011000000100000010010100011000010001110111010101110000000000101000'
p279
aS'101000000010100000000000000000000000000000000000000010000000000000000000000000000010000001110011000111000000000010000100000000000000100000000000000000000000000001000000000000001000001000000000000000000000010000101000010000000011100001100000000000000000000100010000010000010000000000000000000000100100'
p280
aS'101000010000000100000000101001000011100001000001010000000001001110000000100000010001110000100101000010010000100100101010010011100110100000001111100000011100010001000000000001100001010110000100000000001000000100000011001000010000000000010010000100000000100000100010011000011001011000010001010000100001'
p281
aS'101000010001000101000000101010100010100001010001010000000101001110000100100000010001110010100101000010110000100110101011010011100110100000001111100000011110010001001000000001100001010110000100000000101000000110000011001000010000000000011010000100000000110100110010011000111110011000000001010000101001'
p282
aS'101000100100001011000010010000001000000000001000010100000000100000000000000000011000000000101000010000000110000000100010001011001000000000010001011000000000110010000000000000001001000100000011000000000010001010000000000101011100100100000000001000010000001000100000010000000000000000111000001001000000'
p283
aS'101000101110100110100000010100100000110100001101100111011000110000001000000000110001101100000110100110001110000001110010100111111001110101011110010001000001011111111011001000000101101001000100001100101000000101100100000001011111010100100011100100001101000001001100111010100011010001010001000001001010'
p284
aS'101001000100000110011011011111001011110011010010011110000101110001100011101100111011110011100001010001010001111111000000001011010000011111010111011000000001011001010101000000001001000111011111100000001010101001110011110110100000110110100100010010110000010010101000001001001000110011011011011011111011'
p285
aS'101001010010000000010010000011001011000101000001010010001111101001100000101100100110010001101000001000110011011111010001010011011001011010110111010010010001111001000101100101100001000111111011010000001110101010011011110010110001010001000100010000010010010010011111001001011001001011100011001001101101'
p286
aS'101001010110110010110000000001111101000100000001001011101111101110000000100100110000010001110001100000000001001101110101111010010100010010000001011000000000100001010100000001111011001001010101010010011110100100111010111010001010010001000000110110010000000000101000011101011001000000000010000001001100'
p287
aS'101001100111011000111000011111101011101101101001101011001001101010110110001000000100100001101110001100000101100001010011110111001000110100001011001100001001011011010000001000001001000101001101000010101010000010100011100001010111110010100000111100011010000001100000011100010011100110101001001001001101'
p288
aS'101001101101000010111000000111100011100101001110011011001001111010110000101100101010110011101010101001000001110101110111100111001001110100011111011000001011011001010100001001111001010001010011000000001010111010110001110010111011110100100100101000010010000001100100011000110001010011001011001011101100'
p289
aS'101100000110001001110001000000101000000000001000000111000110101000010010100000011010100000000000010000000010000001000001001010000001000010001000010000001000010010110000000001011101101000100000000000000100000110010100010100001100010000000100010000010001000000101000000100101010010000000110000101000000'
p290
aS'101100010010000000000001000000000000000000000001000000000000000000000000000000000000000001000010001000000010000000000000001000010000001000000000010000001000000001000000000000000000001000001000000000000100000000000001000000000001000100000100000000100000000000000000000100000000000000000000010001000000'
p291
aS'101100101101010000100000010110110100110101011010011100000001110010111111000111011010100010001010110101000110000010001010000111100011100111010110001000000000010010111000001001001100100101000010000110010010011001101100010101100000111110100100101000001110100101100001101110101010110011000000110111001000'
p292
aS'101110010100000000000100100010100111100101010010001101000000100001100011000101011000000111111000011000000011010110100000001100000001101111100101001010000000000000001001001100000000100000001000110000000000110100101100010101000000001101101100001000010010110100010001101011110010000011000001000101100000'
p293
aS'110000000000000010000000000000001000000000000000000000011000000000000010000000100001000000000000000000000010100000000000000000000000001100000000100100000000100010000000100100000000100000100000000000010000000010000000010000000001000000000000000110000000000000000000000010000000000000000010000000000000'
p294
aS'110001001000111000101001011111100101011000101101101000001001110010111101011001110101011011010110001100000000100101000010010110001100111001001000101001101111001100011010100000000011100000010101100010010011000101000001001111011001000000100011101110000000101001000100011010000100001000111011101000010010'
p295
aS'110001100101101001111001111010100011100000101110101110010001010010010101000110011101111100001110000101011100101001010000000101001010111001011111000100101111000010101011101000010010011010111000110000101010001100100101000001010100000110000001000010100111000100110100111100010010011111001011101001010000'
p296
aS'110100000111010000101001110111010000011010000001011100100100110100111110110010100010100010010111100100001100000010100110111100101100000101000000111000100000010110000000001010001101110000000101100010110001000001100111010101101010001110100010101110110100100101001100000110001101100100001000100011011100'
p297
aS'111001001100000010010010010111101011110000000010011110001101101011100010101100110010110001110000110000010001000111110100101011010000010111010101011100100001010001110100000001101001010011010111110000011010100011100100110111101010010100100100010010110000100000011100001000011000110000000011001011001100'
p298
aS'111001100000100001011000001111110011100001100100100110000001100000100001101100001110011101101000001001011000111111010000000111011010111101010111010000001001110001010001100000100001001010010111010000001010101100111001010010110000100001000100001000000000011010101100111101010001010011011011101001001100'
p299
a.