(lp1
S'00000000000000000000000000000000000000001000010000000101000000000000000000000000000000000000000000000100000001100000010000000000000000000000011000000000001000100000001000001000000100000000010100000000'
p2
aS'00000000000000000000000000000000000000010001000000001000100000000100000000000011100000000000000000010000010000001000001000000000001000000000100000000000000000000000000000010000001001000000101000000010'
p3
aS'00000000000000000000000000000000000000100000000010100000000001110000000000010010000000001010000000000000010000000000001000000000001000000000000000000000000000000001000000000000000000000001000000000001'
p4
aS'00000000000000000000000000000000000100000000000000000010000000000001000000100000000000000000000001100000000000000000000000001010010000101000010000000100010000000000000000010000000000000000000000000100'
p5
aS'00000000000000000000000000000000000101010000100000000001100000100000000000000001000000000000000000000010010000000000000010000011000000000000000000000000010010010000000010000100000000000000000000001000'
p6
aS'00000000000000000000000000000000001000000000101100000000100000000000000000001000000000000000000001000000000000000010000001000000010000000000000000000000100000001000000100000100000100000100000001100100'
p7
aS'00000000000000000000000000000000100000000000000000000000000000000000000000000001000100000000100000000000000000000000000000001000100000000001100001000000000000000000010000000000000000001010000000000000'
p8
aS'00000000000000000000000000000000100000000000010000000000100000000000010000000000000000010000001000000100000000000000000000000000000010000010000010000000000000000000000001000000100000010000000000000010'
p9
aS'00000000000000000000000000000100000000000000000000000001000000000010000000000001100100000000000001010000000000000000010010000000000000000000000000000000000000000100000001000000000000000000001000010001'
p10
aS'00000000000000000000000000000100000000000100000000000000000100000100000100000100000000010000100010000000000000000000000100000001000000000000000000000100000000000000100000000010000000000001000100000000'
p11
aS'00000000000000000000000000001000000000000000000000000000000000000000000000000000000000100000000100000000000001000000000000100110011001000100000000000000000100000000000000010000000000100000000000000000'
p12
aS'00000000000000000000000000001000000000000000000010000000000000000000000010000101000001001000001000000000001000000001010010000011000000100000000000100000000000000000000000000000000000001000000000000100'
p13
aS'00000000000000000000000000010000000000100000000000010011000000000000011000000010010000100000000000000000001010000000001000000000000000001000001000100100000000000000000000000000000000000000010000000101'
p14
aS'00000000000000000000000000010010011000100000000000000000001000000000000000000000000010000000000000000000000000010000000000000000000000000000000001001000000001000100000000000000100000000000001000000000'
p15
aS'00000000000000000000000000100000010000000000000000000000101000000001000000000100000000100000001010010000100000010011010001001001000000000000000010000010010000000100001000000000000000001000001000010000'
p16
aS'00000000000000000000000000100000100000001010000110000000000101110000000000000000000000000000000000000000000000100010100000010000000000000010000000010000000000100000000000000011000101000000000100001000'
p17
aS'00000000000000000000000100000000000000000000000000000000000010000100100010000000000001000000010000001000100000000100000000010000000001000010000000000000000100100000000000001010000000010000000000000000'
p18
aS'00000000000000000000000100100000000000000000000000010001000000010000010000000000000110100000001001000010100100000000000010000001000000010000100000000000000000000000000000000010000000010000000000100000'
p19
aS'00000000000000000000001000000101000000100001101000000100000000000000010010000000100000001010000000000010000001000000100000000000000000000000000000010000000000000000010010000000000001000000000000000000'
p20
aS'00000000000000000000001000010001000101000000000100010000000000000000000001000000000000000000000000000000001000000000000000000000000010000000000000001000100000000000000000000001000000100000000100011000'
p21
aS'00000000000000000000001010000100000000000000000000001000100000000000000000010000010100000010000000000000100000000000010000000000000000000101000000000000000000000000000000000010010000000010001000010000'
p22
aS'00000000000000000000001110000000000001000000000000000000001000100000000000001000010000000000000000000000000000010000001000100000000000000000000000100000000001000001000000001000000000000010010000000000'
p23
aS'00000000000000000000010001000000000000000010000000000010111000000000000000100000100000001000010110000000000100001100000000000000000000000001001000000010000000000000000000010000000000000000000000100000'
p24
aS'00000000000000000000010010010000100010010100100000000000000000010000100000100000000000000100000100000100001000000000000000000000110000000000010000000100001000111000000000000000000000000100000010000000'
p25
aS'00000000000000000000100000000000100000000000000000000000000000000000000000000001110000000010000000000000000001010000000001100000000001000010000000000010000000000000000101000100000000010001000010000000'
p26
aS'00000000000000000000100000000000100010000010000000000000010001001000000000000000000001000001000100000000000000000010000000100000110000000000000000001000000000000000000000000010000000000000000000000000'
p27
aS'00000000000000000001000000000000000000000000100000000000000010000011001000001000000000000000010000000000001000000000000000000000100100001000010000000000010000000000000000000001000000000000000000000000'
p28
aS'00000000000000000001000000000000000010000000000000000000000001100000000000000000000001000000100111000000010100000000000000000000000000100000000000111010000100100110100011000000000010100000000000000000'
p29
aS'00000000000000000001001001000000010100000000000000000000100100000000010000011000000000000010000000000101000100000101100000000000000000000000000000000000100000000000000000000000000001000000000000000000'
p30
aS'00000000000000000001010000000000000100000000001000000000101000000000000010000000000010010000000010010000000010000000100001001000000000100000000000100000000000000000000010000000000001000000000010101000'
p31
aS'00000000000000000001100001000000000001000000100010000100010000000000010000100100110000000100100110000001001000101100000000010010001000111000001000101000000101000000100000000010000010000100000100010011'
p32
aS'00000000000000000001101100000000001001000000010000001000000000001000100010000000000000000000000000100000000000000000000000000000001100100000001000000010000000010000000000000000001000000001001000101000'
p33
aS'00000000000000000010000000000001100000000000001000100000000000000000011000000000000000000000000000000000000000000000000000000001000000000000000000000000000000000000100100000000010000000000000000000000'
p34
aS'00000000000000000010000000010000000000000000000100010000000000000000000100000000001100000001000010000010000000000010000000000000100000000001000000000000000000110000000000000000000000001000000000000000'
p35
aS'00000000000000000010000001000001000000010000001000000100000010101100000000000100000000100001001000000000001000000000100100001000000000000000000100010000100000010000000000000000000000000000000000100000'
p36
aS'00000000000000000010000011000100000000010001001000000000001001000000000000001000000010000100000001001000001010000000000000000010000000000000011001100100000000000000000000010001000010010010000000000000'
p37
aS'00000000000000000100000000000000000000000000000000000000000000000000010100000000001100000100000110100000000000000000000010010000000000000000000011000000000010100000000101000000000000000010000000000000'
p38
aS'00000000000000000100000000000000001001010000001001000000001000000000000000000000000000100000000001000000000000000000010000000000000000000010000000000000000000010000100000000100000010010000000100000000'
p39
aS'00000000000000000100000010100110000000000000000000000000000000000001000000001000000001000000000000000000010000101010001000000000000000000000000000000000000000000000000001100000000000000000000000000000'
p40
aS'00000000000000000100100000000010000001000000000011110001000010000100001000001000000000101110000100000010000000000000110000000000010100101001010001010001000010000010001010000000101010001000001001110010'
p41
aS'00000000000000000100100010000000001000000010000001000000000000000001001000000000000010000000000000000100010100000000000000000000010000010000001000000000010010000000000000000010010000000000000000001000'
p42
aS'00000000000000000101000000010000010000001100000000001000000000000000010010110000000000000000001000000000000000000000000000100010000000000000000010000000000010000000011001000100000011000001000010100000'
p43
aS'00000000000000001000000000000000000000000101000000000000000000000001000000000011000000000000000100100100000000000000000000000010000000000000000000000000010000000000000010010000000010000000000000000000'
p44
aS'00000000000000001000010001010001000000000100000000000010000001000000000000100000001100000000100000000100100000000110000000000000000100000000000000000000000010000000000000100001000010010000000000010000'
p45
aS'00000000000000001010000100000001000100000100000100000100000010000000010000000000010000000000000100000100000000001001000001000010000000100000000001000000000100000001000000000000000001001100000000000000'
p46
aS'00000000000000010000000000000000000000010000001000000011000000000000010000001010000000000000100000000100010010000000000000000000101000001000000000000000000000000001000000000000010000000001010000101000'
p47
aS'00000000000000010000000000000000010100000000000000000100000000000000001010000001000000010000000000000000000000000000000010000000100000000000000100000000000000000000000000000011100000000000000000000000'
p48
aS'00000000000000100000000000000000000000000000000000000000000000000000100000000000000000000000000000000010001000000000010001000000000001000000010000000100010010000000010000001000100010000000000000000000'
p49
aS'00000000000000100000000000000000000000000000000000100000000010010000000010000000100000000000000000001010100000000000100000000000000000000000000000000000100000000000010000000100000000100000000000000010'
p50
aS'00000000000000100000000000000000000001011000000000000100000000000000000000000000000000000001000000000000001000000000000010000000000001000000000000000100010010000000100000000000100000000000000000000000'
p51
aS'00000000000000100001000000001000000000000001000000000000000000000000000010000000000001000000000000001000010000110001000100101000100000000000000000110000000000000100000000000001000100110000010100100100'
p52
aS'00000000000000100010000000110000000000000000100000000000000001001000000000100100000100100000000000001001000010000000000000000000000000001000100000100000100000000000100000000000100000000000100000000000'
p53
aS'00000000000000100100000000000010000001000000000011010001000010000100101000001000000000100110000100000010000000000000110000000000010100101001010001011001000110000010001010000000101010001000001001110010'
p54
aS'00000000000000101000000000000000000010000010000001000001100000100000000100011000000000000000110000000000000000000010011000000000000000000010000000000000010000000000000000000000000000000000001001100011'
p55
aS'00000000000001000000000000000001000000000100100100000000000000000000000000100010000000000000100000000000000000000000010000000000000000000001001000100001000000000000000010001100000010010000000000000000'
p56
aS'00000000000001000000000111000000000010000000000000000110000000000110000000000010000000000000001000001000010000010000000000000000000000000001000000001000000000000010000000000000000000000000100000000000'
p57
aS'00000000000001000001000000100000000000010000000000011000000000000001100000000000001000001000000000000100001000000000000000110000001000000000000010000000000000000000000000010000001000000000000000000000'
p58
aS'00000000000001000010000000100010000000000000000000010010000001000000000000000000100000000000000000000000000000000000100000100000000000000000000000000000000000000100000000000000000001000000000000000000'
p59
aS'00000000000001011000000000000100010100000000010100000000000000000000010000000001001000000000000000000010010000011000000010000000100000010000100001001001000010000000001010000010000000001000000001000000'
p60
aS'00000000000001100000010000110000000000000000000000100000010000000000010100000000010000000000101000000000000000000000000000000000000000000010000010110000000010000001000001000000000000001000100000111000'
p61
aS'00000000000010000000000110000000010100110000000001000001100000000000100000100001100000001000000000001000000000000000000100001000000000100000000001000000000000100000000000000000100000000000000000000010'
p62
aS'00000000000010000000001010000010000000000000100000100000000000001000000010000000100000000000010000000010000000000000000000010011000000000000000000000100000000000000000000000101000100000001000000000000'
p63
aS'00000000000010000010000100000000000000000000010010000000000000000001000000000000001010000000000000000000100000000000000000011000000000000000000000010000000000000000001100000000000000000000000000000000'
p64
aS'00000000000010000101000010000000000000000000000000100100001010000010000000000000000001000100000000001010000010010000000000000000000000000010000000100000000000000000000000100000100000000000000000000000'
p65
aS'00000000000010100000001000001000100010000000000010000000000000000001000100000000000000000000000000000000000000000000000000000000000000000000000001000000000000000000000001001010000000000000000000000000'
p66
aS'00000000000100000000000000000000010000001000000000000000000000000000010000000000000000000000000100000010000000000000100001000000100000000000000000000000000000010000010001000001010000000000000011000100'
p67
aS'00000000000100000000100000000000100000010000000000000000000000000000010000000010000000010000000000100000000000000000000000000010000000001000000000000000000010000000000000000001000000000000011000000001'
p68
aS'00000000000100000001000000000000000000100000000000000000000010100000000000000000000000000000000000000001000000000000100001000000000000000000000000000000000000001000001000100001001000000000100001001001'
p69
aS'00000000000100000001000000000100010000000000000100000000001000000000000000001000000010000000000000100000010001000000000000000110000000000000000000000000000010000000100000000000010000001001000000000010'
p70
aS'00000000000100000110010010000000000101010000000010001000011100110000000000101100000000001010010000111000000100000101010101001010110010110000011000101100000100000000010100000000001101001000110110001000'
p71
aS'00000000000100010000000000011000000000000000001000000000010000000100000000000100000000000000000011001100000000000001000000000100000100000000000000001000100000000000000100100000100001001100000010000000'
p72
aS'00000000000100010100000000001100011000100000000010100110000100110100101110110000001101001000001011000000001101001001001000000100000000010100000000000001011000011000100010011100110110000100001000100100'
p73
aS'00000000000100010110010010000000000010010000010010001000010100110000000000101110100001100010010001111000000100100101110001001000010100010000001011001000000001000001010110001000000001100000010100101000'
p74
aS'00000000000110000000000000001010000000000000000000010000010001000001000000010000000000000000000000010000000000000010001000000000000000010001000000001000000000000000000000000000000000000010000010000000'
p75
aS'00000000001000000000000000000000000000000010000000000001000010000010100000100100100000000000010000000000100110000000000000000000000000000000000000000000000000000000001010000000100000000000100000000010'
p76
aS'00000000001000000000000000000001000001100000010000010000000000010000000010000000100001000100001000000000000000000000000000100000001000000000000000000000000000000000100000000000000101000010000001001110'
p77
aS'00000000001000000000000001000001000000100000000000010000000000000001000000000000000000000000000000101000000000100100000000010000110000001000001000000000000001010010001001000000000000000000100000000000'
p78
aS'00000000001000000000000001010010100000000000000000001000001010000100000000000000000000000000010000001010000010000000000000000000000000101010000000000000110000000000001000000000100000000000000000000010'
p79
aS'00000000001000000000010000000001010010000000000001000000000010010000000100000000010000110000000110000000000000000000000000111000000001000000000000000000001000010000000000000000000001001001000000000000'
p80
aS'00000000001000000000100000000000000000000000000010000000010010000000000100000010000000000000000000010000000000000001000000000000001000000000001000000000000000000000010010000110000000110000000000000000'
p81
aS'00000000001000000001000000001100001001000110000000000000001000000001000000100000000000000001010010000010000000000000001000001000000000000000000000100011000000010000000000000000000000000000010000010000'
p82
aS'00000000001000000001000001000001101000000001000000000100000000000000001000100100000000000000011100000000000000000000000000000000000010000000000000100000000000000000001000000000000100001000000000001000'
p83
aS'00000000001000001000100000000001000000000000000000010000000000001000001000000000000000000001000000000101000001000000000000000000000000000010001000010000000000000010000100000000000010000000000000000000'
p84
aS'00000000001001000000000000000000000001100010000001000000001001000010110000010000000000001000000000100000000000000011000000001110100000100010010000100000000100010010000000000001001100001100000010001000'
p85
aS'00000000001001000000000001000000000000000000010000000000000000010000000011000000101000000000000000101000000100000000000000000000000000000000000000000000000000000000000010001000000010000010000000000100'
p86
aS'00000000001101000000000000000000000101100000000001001000011000000000000000101000010000000010010000000000000000000000000000000110100000110010010000101100000100010000010100000000001101001001010110001000'
p87
aS'00000000010000000000000000000000000000000100000000010010001010000000000000000000000000000100000000001000000000000000000001000000000000000000000100000000000000010000000001000001000000110000000000000000'
p88
aS'00000000010000000000000001000000000000000010100000000000000100000000000010000000000000000000010000000001000000000000000000000000000001000000010010000000000000010100001000000000110000010010000000000000'
p89
aS'00000000010000000000010000000100000100010100000100001000000000000000100001000000010000110001000000000000110001000000000000000000001001000000000010010000010000000001000000000000000000000000000010001000'
p90
aS'00000000010000010000001000100000000000000000100001000100000000000010000000000100000000000010000001000000000000000001000000000000000000000000000000000010110000000000000000000000000000000100000000000000'
p91
aS'00000000010000100000100000000100000000010000000000000000000000000000000000001000000001000000100000000100001000000001000000001000000001010000000000000110000000000001000100000000000000000000000000000000'
p92
aS'00000000010000100010000000000000010000000000000110001000000000000000000000000010000000000010000000000001000000000100000000010010000010000100010000000101000000000001000000100010000010010000000000001000'
p93
aS'00000000010000101100000001001000000000000000000000000100100000000010001000000000000100000000000000000000000000010000010001101011000000000000010100000000000100000000000000000010000000000000100100000000'
p94
aS'00000000011111000000000101001010011100001001000101110110010100000000100010010010010100111101010110100011111001000000000111011010110011010000000100000101111110000001010001100100001000001000000010000111'
p95
aS'00000000100000000000000000000000000100000000000000001001000010000000000000000110000010000000000001000000000100000000000000010010000000000001001000000000000000000000000000100000001000000001000000100000'
p96
aS'00000000100000000000000000001000000010100000000100000100000000000001000000010000000000000000000000000000000000000100000000000000010000000100000001000010000010000000001100010000000000000000000000000010'
p97
aS'00000000100000010000100110000000000000000000001000000000001000000000000000000000000001001000000000010000000110000000000010100000000000000000100000000000000000000000000000000001101000000010000001000000'
p98
aS'00000000100001000010000000010000000000000000000000000001000000000100000010100100000100000000000000000000010010010000100000000000000000000100000000000100000000000000000000000000001001000000000000000100'
p99
aS'00000000100001110000000000000010000000000000000000000100000000000000000000000000000000000000000010000100001000000100000000000001100000000000010001000000000000000000000000000000000000000000100000001000'
p100
aS'00000000100010000000010000000001010000000000000100000000000000000101000000010001010000000010000000000000000000000000000000010000000010000000001110000000000100000000000000100000000100000000000000001001'
p101
aS'00000000100100000000000100000000000000100000001000000000000000000100000010000100000011000000100000000000000001000000000000100001110000010010001000000110000000000000100000000000010000100000000100000000'
p102
aS'00000000100100001000000000000000000000001000010000000000000000010000000000000000000000000000000000000000110000000000001001000000000001000000000000000010010100100000000000000000000001000000000000100001'
p103
aS'00000000101010000000000000010010110000000001000100001000000000000101000010000001000000000000000000010000001001100000001000000000000001000001000000001000001000000000000000100000000000000100000010000000'
p104
aS'00000001000000000000000000000000110101000001000000000011000000000000011100001010001011000000000010101000000000000000000000000000000000000000100001001000000010000110010100000000000100110100000010000000'
p105
aS'00000001000000000000010000001000010100000001000000010000000000000000000000000001001000000000010000000001000100110001101100100000000000010001000010000000010000001000000010111000011100001000010100000000'
p106
aS'00000001000000001000010100000100000001000000000000000000100000100010000000000000000000100000000010100000001010001000100000000000000000000101000100000000000000010000001110010100001000000000000000100000'
p107
aS'00000001000000010000000000000000000000010001010000100000000000100000000100000000000000000000010000000000000000000000000010000000000000010000000000100000000001000000000100010000001100000000000000010010'
p108
aS'00000001000000010000000000000000000001000000100000000000000001010001000000000000000110010000000000000100000010100000000000000000000010000001001001000000000010001000000000000000000001000000000000000000'
p109
aS'00000001000100000000000000000001000000000000000000000000000000001000000000000001000000000010001001000000000000110000000100000000000000010000100000001000100000000000000000100000000000000000000010000000'
p110
aS'00000001001100000011001000101000000010001001000000000000000100000010000000000000000000000000000100000000000000010000011100000000000000000000000010000000000000000000000000001000000000000000010000010100'
p111
aS'00000001010000000010000000000000000100000001001100000001000001010000000000001000000100100001001000010000000000000001000011000001010100010000000000000000000000101000000010000000000010010000001000000000'
p112
aS'00000001010000010101000000001000100000000000000001000000000000010001000000000001000000000000000001011100000000001000000000000000100001000000000000000010000000000101000000100010000000001000110000000000'
p113
aS'00000001010100100000000000000100000010000000000000000000010000001000000100001000000000100001000000000000000000000000000100000001010000010000000000010001001000000000010000000000000000010000010000100000'
p114
aS'00000001100000000000000000000000000001100000101000000010100000000000000000000000010000000001001010010000000000100000001000001000010000010000000010000000000000000000000000000100001001000000000000000000'
p115
aS'00000010000000000001000001000000001000101000001000001000100000010010001000100000000000000100110100000001000000001000000000000000000000100010011000100000010101000000000000000000000000000000001001001000'
p116
aS'00000010000000000001000001000010000000000110001000000000010100000000000000000000000000000000100000100010010000000000011000000000000000000000000010000000000001010001000000010000000000000001000000000001'
p117
aS'00000010000000001010100000000000000000000010000000001000001000000000000000000000000000000001000000000010000000000000000000000000000100000001000100000000000000000000010010000000000000011000000000000000'
p118
aS'00000010000010000100001000000000000100000100100000000000000000000000000100001001010000000000000000001000100001000000000000001000000000100000000001001000000000000100010100000000000000010100010000000000'
p119
aS'00000010001001000000000000000000000000000000000000001000000000100000100100000000000000000000000000000000000000010010000001100000000001000000000000000100000000101000000010000000000000000000000000000000'
p120
aS'00000010010000000110001011100000011000011000000000000000001000000000000010000010000001001000100001101010010000100000000010100001000010100000000001101000000000000010000000001001000001010000100100000000'
p121
aS'00000010011000001000000000000100000001100000000000000000010000110000000000000000000000000000000000000010000001000000000000000000001000000000000000000001000000000000000000000000010011000001000000000000'
p122
aS'00000010100000000000000000000000000000010100010000000000000000000000001000000000000000000000000000110011100100000000000100000100000000000000010000000000010000000000001010000000000000000000000000000000'
p123
aS'00000011000100000000000000100000000000000000100000000000000001000000000000000000000000000000000000010000000010001100100000000000000000000000001000000000000010100000000001010000000100000011000000000000'
p124
aS'00000100000000000000000000100000000100001000000000000100000000000010000000011011000101000000101000000000000100010000000001000100000000100000000100000100000000000000100110000001000000000000001000000000'
p125
aS'00000100000000000000000001000011001000100010000000100000000000000000000010000010000000000000010000000001001000001100100000010000000100101000100001010000000000000000000100000000000100000000000000010100'
p126
aS'00000100000000000100100000010100100001000100000000000000000000010000000000000000000000001000000001000101001000000000000000000000000000000100000010000000001000001000000000000100000000100000010000000001'
p127
aS'00000100000000000110000001000000000001000000000010000001000000000000000010000000000000000000000000000000000000000000000000000100000001000111000000010000000000000110000000000000000100000000010000000000'
p128
aS'00000100000000001000000000000000000000000000000010000000000101000000000010000000000000000000001001000001010001000000010000000000000100000000100100000000000000000000000000000000000000010000000001000000'
p129
aS'00000100000000001000000000000000000000010000010000001000010010000000000100000100000000000010000000000000000010001000100000000000000000000000010000000100000000000001000000000000000000010000001010010000'
p130
aS'00000100000000010000100001000010101000000000000010000000000000000101000000000000000000000001100000100001000000000100000000000100010000011000000000000000001001001000100001000100000010000000001000000000'
p131
aS'00000100000001001000000010000000000000000000000000001000000000000000000001000000000000000000000000000000100000000000000000011000000000000000000000100000001000000000000000000000000010100000100000000000'
p132
aS'00000100000011000100000000000001000000000001000000000000000000000000000000000000100000100000000000111000100000000000000000000000000000000000000000000000100000000000000000000000000000000001000000000000'
p133
aS'00000100001000000000000000001010000010000000000000100000010000001000100000000001000000000000000000000000000001000000000000010001000100000100000000001000010000000000110001000010000000000000010000000000'
p134
aS'00000100010010000100000000000100000000000000000000100000000000000000000000000000000000000000000000000000001000001001000000001000000000000000000000000010000001000001000000000000000001000100001000000100'
p135
aS'00000100100000000000000000000000100100000000000000001000000000000110000000000000000000000001000000000000000000000001000100001000000000001000000100000010001000000001001000000000000010000000100000000000'
p136
aS'00000100100000000000010000000000000000000000000000000010001000000000000000000000000010011000000000100000000000100100000000000000000000010000000000000000001000000100000000100010001000000100010000000000'
p137
aS'00000100100000000010000000000000100110100000000000000000110000000000000000000000000000000100000000010000100000000001000000000000000000000100000000100000000000000000010000010000000000000000101001000000'
p138
aS'00000101000000000000010000000000100000000010000000000000000001000000100000100000010000000001100010000011000000001000000000000000000101000000000010000000000010000010000000001000001000000001000000000000'
p139
aS'00000101010100000010000010100001000001000010100010000000000100000000000100000000000000000000000000100000000000100000000001000001000000000010000010000000000010000000001000000000001000000001000000000000'
p140
aS'00000101100001010110000000110101111001101110111100000001000101100100010011110000101000000010100001011000010001001100011000110011010000100110001001100000001000101110000000100000010011100001011011100100'
p141
aS'00000110000010000000000000010000010000000000000000000001000000000000000000100110000000000101000001000000000000000000000000000000000000110000000000000000000000000010000000000000010000000000000000000000'
p142
aS'00000111000001010000010000110100011000111100010111100000010111000000010010000000001010011111000001011010111011101110011000111001110100000100001101000010001001100000000001000000110011101001000011100101'
p143
aS'00001000000000000000000000000000000000000000000010010000000000000000000001000100100000000000000000000000000000000000010000000000000000001000000000010000100000010000000000000000000000000001000010100000'
p144
aS'00001000000000000000000000010000000000000000010000001000000000000010000000010000000100000000000000000000000000000010000000000000000000001001000000000100010000000000000001000000000010001000010100110000'
p145
aS'00001000000000010000000010000010000010001000000000000000000000000000000000000000000000000100001000000010000000010000000100000000000001000100000000001000000100000010000010001000000000000000000000100001'
p146
aS'00001000000000010010000000001100000000000000000000000000000100000010001000000000000100000001010000000000000000000000101000000001000000000000000000000000000000010000010100001000001010000000000000000010'
p147
aS'00001000000000100000000100000000000000000000010000000000000000000000000000000000000000000000000000001010000000000000001000000000000010000000000001000010001000000000000000000000100000000001100100010100'
p148
aS'00001000000001000101000100001010000000000000000000000000000000000100010101100000011000010001010010000001010000010010100001001110000001010000101000000101001000000001000000000010000000000100000000000000'
p149
aS'00001000000011000100000100001000000000000000000000000000000000000100010101100000011000010001010010000001010000010010100000000110000001010000101000000101001000000000000000000010000000000100000000000000'
p150
aS'00001000000110000000000000100000000000010000000000000000000000010000000000001100001000000010001000000000001000010000000000000100000000000000000000100010000100101000001000000000001100000000000000000010'
p151
aS'00001000010000000100001000000000000000000010000000110000000001010010000000000010000000001000000000000000000000000000001000000000000000000000000001000000000010000001000000000000001000000000000000000000'
p152
aS'00001000100000000001000000000000000000000000000000000000000000000000001000000000000100000000000000101000000000000000000000000001000010100000000000010000000001100000001000000000000011000000010000000000'
p153
aS'00001001001001111110010000111101011000111110011101000011000111101010110011000000101010010010111001101000010101001000010010100011000000000110001101000000000010110000000000101100000001111011000011000100'
p154
aS'00001001100000001000000000000010011000001000000000001010000000001100010001000000000000000000000000000000000010100000100011000010000000000000100000000000000000100000100000000000011000000000001010000110'
p155
aS'00001010000000000000000100000010000000000000000000000000001000001000010000000000000000000000000000000000000000001010000100000000101100000000000000000010000001000011000100000000000000000000001000000000'
p156
aS'00001010100000000000000000000000000000110001000010000000000000000110000000010000100010000010000100000100000000000000000010000000100000000010000001000000000000000000000100011100000000000010000000010000'
p157
aS'00001100000000000000001000010000000000001000000000010000000000000000000000000000000000000000000000000001000100000000000010100000001000000100000000000010000000000000000000000100000000000000000000000000'
p158
aS'00001101100000000010010100100001011001000001000000000000000000000000100000000100000000000000000000000000100010000000000010010010000110000000010000000010000000101000000000000000010001000000000000001000'
p159
aS'00010000000000000000000000000000000001000000001000010000000000000000000000000000000000000000000000000000000010001010000000100000000010000000000100000000000100000000000000000000000000100000001000000000'
p160
aS'00010000000000000001100001101000000100000000001000000010000100001000000010000000000000000000000010010100010000100010000000000000000000000010010000011000001001000001000000000000000000000000000000000000'
p161
aS'00010000000000000010000100000100000000000000100000100000000000000000010100000000000000000000000010100000000000000000000000000110000000000000000000000000000100001001100000010000010000000000001000000000'
p162
aS'00010000000000001000100000001100001100001000000011000000000000000000000000000000000010000000000000000000000000000001001000000101000000000000000000110100000011010000100000000000100000111000000000101000'
p163
aS'00010000000000100000000000000000000001000000000011000000000001001000000100000000000000000010000000001000000100000100000000000000010000100000000000000001000000000000000000000000100000000000000000000000'
p164
aS'00010000000000100000001000010000100000001000000000000100010000010010000000000000001000000000000000000000000000000010000010000000010000000001000000001000000000000110100000000000000000000000000000000000'
p165
aS'00010000000100001100010000000000000000000000000000000100010000100000010000010000000001000000000000000100000110100000000000000000000100000000000000000000000000100001000000000101010000000010000000000010'
p166
aS'00010000000100011000000000000000000000100110000000010010000000010010000000000000000000000001000000000000000000010000000000000001000000000000000010001000000010000000000000000000000000000010100000000100'
p167
aS'00010000010000000000000000000010100010000000000010000000001000000001000000000001000001010010000000000000000000000000000011000000000000010000000000010000001000000000000000010000000000000000000000000100'
p168
aS'00010000010000100000000000000000000000000000010000000011000000010000001000001000000000000000010000000000000000000000000001000110100000001000000000000000100000000000010000000010100000000000000110000010'
p169
aS'00010010000000100000100000000000000000000000000000000000000000100000000000000000001010010000010000100000000001000010000000000000000000001100000100000011000000000000000001000100000101000100000000000100'
p170
aS'00010010001000000000000000000100000000000000000100000101000000100000000000000001010000000100000000000000001001000000001000000000000000000000010000000000000000000000000000000000000000100001000010010000'
p171
aS'00010010001100001001000000010000000010000010001000000010100000111010001001000000000001000000110000000001000000001000000000001100000010001011110000000000000000001000000000001100000100010010101001001100'
p172
aS'00010110000000000001110100011111000011110101110110100100110110010011001101001100000000011111001010000100111110101011100001001111011100110000110110111100110101100110010101010110100000100110011101011111'
p173
aS'00010110100010110111001110010110000100101100010001110010101010111110000000100010100011010000010001100000100000010001000101011100100110011101001101001001000000010001100111111011101011110110111000100101'
p174
aS'00011011101100001001000000011011000000100011110001101000000010011010001000010001010100010000010010010001000110010010000110000001000000000000000101000101000001000100000100110000101010101111010001100000'
p175
aS'00011100000000000000000000000000000000000010010000000000000010000000000000000000000010000000001000000000000000000000001010000000000010000000000000010001010000001010000010000000000000000100000010000000'
p176
aS'00100000000000000000000000100000000000000000000010000000000000000001000000000001000000010100000000000000000000000000110100010100000000000000010000000000000000100000000000000000000000000000000001000000'
p177
aS'00100000000000000000000001000000000000100000000001000000000000000010000000000000000000000000000000000100000000100001001000010100000010000000000000000001000010000000000000000000100000000000000011000000'
p178
aS'00100000000000000000000100000000010000000011000000000000000001000001000000000010101000001000000000000000000000000000000000100100101000000000000000000000000000000000000000100010000000100000000000000001'
p179
aS'00100000000000010110010010000000000010010000010010000000000100110000000000000110100001101000000001011000000100100100110101001000010110000000000010000000000001000001000010001000100000100000100000100000'
p180
aS'00100000000000100000000000010100001010000000000000010100000101000000000000001000000000010000000000000100000000100000000100000000000000000100000000000100010000000000000000001000000000001000000000000000'
p181
aS'00100000000000100001000000000001001000000000100000000000000000000110000000000000000000000000000001000000000000000001000000000000101001000100000000001000100000000000110000100000000000000000001000000000'
p182
aS'00100000000010000000000010100000000000000000001000001000000010011000000000000000000000000000001000101100000000000000000000000100000000010001000010000000001010000100000000000101000101000001100100000000'
p183
aS'00100000000100000000010010000000000010100100000001000000100000000001001100000010110000000101000000100000011000000000000000000011000000000100010000000001000001000000000010010000000000000000000010100000'
p184
aS'00100000001000000000000000000000000000001000000010000000000000000000000000100000010000000000001010011000000000100000000000001010000001010000000000000000000000000111000000000100010000000000000000000000'
p185
aS'00100000001000000000000000000000000100100000001000001000010100001000000000000000000000000000000100010000001001000000000000000010000000000100000000000000000000000000000000000000000000000001000000000000'
p186
aS'00100000001001000000001000000000000100100010000001000000001101000010110001010000010001000100000000100000000000000010100000001100100110000010000001000100000001010011100000000001100000001101001000011000'
p187
aS'00100000010001000000110011000000100010001101001100011100011101001001110000110100001010101000101100000000010011100111011001110011011001111010011010111010111111111110111001011000000000000001001100010111'
p188
aS'00100000010001010000001110100100101110011000001000000000011101001100011010100100000000001010101000101000010000100101001000100000000010100001100000111000000010011010000000000001010001010000100110001000'
p189
aS'00100000101000100111001000001011001011011010001000000100001000100010100000000101100001100010000001010010001001100000000001011001000110000010010100010000000001000001100001000000100100000000100100101000'
p190
aS'00100000101010000010001000000000001010001000000000010000000001000000101000000000000000000100000100000100000101010001100000000000110010000000010000000000001000000000100000000000100000000000000100000000'
p191
aS'00100000101010100010001000000011001011011010001000000100001000100010100000000101100001100010000001010010001001100000000001011001000110000010010100010000000001000000100001000000100100000000100100101000'
p192
aS'00100001001000000000000000010010100000000000000000000000010000000010000000000010001101000000101000001000001001000000000000000000000100000000101000000001000010000000000000011011000000001000010000000001'
p193
aS'00100010000000001100000000000000000000000000010001000000000010000000000100000000000000000001010000000000000000000000000000000000000010001000100000000000000000000000101000000010000000000010010100000000'
p194
aS'00100011110000001010000100011100010000000000010110000000000000100000000001001000000010000000100101000000100101001011000000001000000000000000010000000000000101000000000000000000000001000000000000010000'
p195
aS'00100100000001010001010111110100011000101001000101010100010011001000000010000010000010011111000011111110111011100110010111101011110110000000000101000010101100100111010001001010001000100001010000010001'
p196
aS'00100100011001000000110011100000100010001000001101011100011101000101111000000110100010111101100001101011011101100111011000010010010010001010011100110010111110100011000001000111000000001001001000010111'
p197
aS'00100101000000000000000000000000000000000000000000001100000100000000100100000100000010000000000000000000000000000000010000000000000001100001000000000001100000001000100000100000000000100000100000010100'
p198
aS'00101000010110110000001111100110001100010000000011000110101000111110000010000010000011001000111110100010101000010001100101100100100110011001100100011100000000010011000010011111000101010010100100101100'
p199
aS'00101010000000000000000000000000010000000000000001000000000000000000010001000000000000000000100100000000000000000001000000100000000000000000010100000010000000000000000101000010000000010000000001000100'
p200
aS'00101011001100011000101000111000000100001110100010101110101101110000000001000100001110101001110001110000010010010111000010000000010111000011101101010110101010010000010100110111101000001000100001101100'
p201
aS'00101111100000010111101000010001000001001101100010100001110110101100011001100000111001001100010001100001000010011111000100001001000001000101100110011110001001000100010100010100110010111100111001101000'
p202
aS'00110000011000000000000000000000000000000100000000000010000000000000000001000010000001010000000000000000000110000010100000000000001010000100000000000000000000000000000000000000000001000000000000000001'
p203
aS'00110001010000000100000100001000000000010011100111000001100001000000000000000000010000000000001110000000000000000000000000100000000000000000000000000000010000100001000010000000000000000100000000000010'
p204
aS'00111100000000000000010100010010000010000000010001000000100000000001100000100000000010000101000000001000000000010000000000000000000010000000000000000110000000000100000000100000000100000010000000001010'
p205
aS'01000000000000000000100000000000000000000000000000000000000100010100000000000000000000100000000000000000010000011000000000001000001000010010000000000000000000001000001010000100000100000010000000110000'
p206
aS'01000000000000000010000000000000000000001000000000000000001000001000000001000000010000000000000000000000000100100000011000000100001000101010000000000000000000000000000000000001000000000010000000100001'
p207
aS'01000000000000001000000000000000000000000000000100000101000000000000000000000000000000000000010000000100000010001010000000000100000000000000001000100000010000010000000000000000000000000000110101000000'
p208
aS'01000000000000100000000010000000000000100000000000100000000000000000000000000000001010010000000000100000000000000000001001000000001010001000001001000000100000000000000000000000000000000000000100000011'
p209
aS'01000000000001000000000000000000000000000100000000000000000000000000000000100000100000000000100000000101000001000100000000000000001000000000100000000000000000000000000100000101000100100000100000000010'
p210
aS'01000000000001000000000100000000000001010000010000000100000000000001001000000000000000100000000000000000000000000100000000001000000001000000000000000010000000100110000000000000000000001000000000100000'
p211
aS'01000000000100001110010000000010000011000001000011110001010110000100101000001000000000101110000100000010010000000000110000100000011101001001010001011001000110001010101010000010001010001000001101110011'
p212
aS'01000000010000000000000000000100000000000000000000000001000000000000000000000000101000000100100100000000000000000000000000000000000000000010001000000000000100000000000000010001000000001100000000000000'
p213
aS'01000000010010000000000000000000000000000001000100110010100000000001000000001010000000000000001101000000000000010001000000000000001000000000000100000000000100000000110010001000000010000100000000000000'
p214
aS'01000001000000000000010000000000001000000001100000000010000000000100000100000001010110000000000000000000001000000000101100000000000000000001001110000000010010010100000000100000000100001010000100000000'
p215
aS'01000010000010000000001000000101000000000101010000000001000000000000001000010001010001000100000000000000000000000000000000000000001000000001000010000000000001100000001000000000010000010000000001010000'
p216
aS'01000011000111011010011011000010110010000101110001100100011110100000100100111010100101101010011100000010110001001000000010101100101011110101110100011011100110011100100000000011100000010000101100000001'
p217
aS'01000011000111011010111011000000110000000101110000100100011100100000000100110010100101001000011000000000110001001000000010101100101011110100100100000011100100010100101000000011101000010000100100000001'
p218
aS'01000011000111111010011011000000110000000101110000000100011100100000100100110010100101000000011000000000110001001000000010101100101011110100100100001011100100010100101000000011101000010000100100000001'
p219
aS'01000100000001000000101011000000100010000101000000011101010111010101001100110111010100101100001100000001000010100001111001010000001001111000010010111010001101001010101100000000100000100100001100011011'
p220
aS'01000100100011100111001010110000101000001000001001011011101001100111010011110010111101000000100001010001010000001001011000010100100100101100001110001001001111111011101000001100100010000101001010110001'
p221
aS'01000100100011100111001010110000111000101000001100010011100101100100110011110010111000001000100101001000010000101000011000010100110000100100001101001001001000100011101000001100100001001001011011010001'
p222
aS'01000100100011101100000011101100000010101000010100011100011101010101000011100110100001001001000001110000011000110011011001010100110110101000011100010011101000100001100000010010100010100101011100110101'
p223
aS'01001000011010001001101101000010101011000001000011000101111000111100101000000111110101100000001110000011110110100001101001000001000011001001010010111001100110000011011111010011001100010010110100010101'
p224
aS'01001000100010000000010000100000110000000000001100000000100000000000000000011000001100001100000000001000000000000001010000000000000000000000000000000000000000000000000100110000000000000000000000000001'
p225
aS'01001100100001110100101011000100000100001100100011100100111001100110001000100010100001001000010001110010001010111001000000000000110110001001001110111001001000010001100011010111110111110010101101100001'
p226
aS'01010000000000001000000001001000000000000000000000000001000000000000000001000000000000000000000000000000000000000010010000000100010100000110000000000000100000010000001000000000000000100010000000000000'
p227
aS'01010000010000001001001000000000000100001000000000000000000000000000000000000000000000000000000010000001000000000000100000000001100000000000000000000000000000000000010000000000000000000000000100000000'
p228
aS'01010000011001001010000010110101011011010000000100010000110100000100010011001001001000110010100100001010101000101010011111101110000011100101100001000001100010000011000001001001011001011000111110001010'
p229
aS'01010000011101000000101101001011000111000001100101111100010000001001001010000111010000110101010110100011111011110000110111001001110111011000010000001101100000000001010000100000001100010110010110000110'
p230
aS'01010000100000001000000000000000000100000000000000000000000000000000000000011000000000000100000000010000010000000000000000010000000001000000000000000001010001000000000010001000000000010010010000001001'
p231
aS'01010011001100001011100000000001000011000111100111000010000000101110011001000001100001000000000000000001000000001000001000001110000011010101100010011001000001000101000110101000110110011010110000100000'
p232
aS'01010100011111000001001101010011101001001001000101011001010000000001000000000111010000110100000110000011011010000000110111011001011011111100010010101001100100000011111100000000001000100100010110010000'
p233
aS'01011000000000000000000100000000000001000000000000000000000000000000000000100000000000000000100000000000000000000000000010010100010000001000000010000000100000001000000000110000010000000000100000000000'
p234
aS'01011010001000000000000010000000010000001001000100000000000100000000000100010000000100000001000001000000000000000000010000000000000000000100100010000000000000001000000000010010000000000001000000000001'
p235
aS'01011011001100001011100000001011000011000110100110000010000000101110001001000001100101000000010000000001000000000000001000001110000011010101100010000001000001000100000110101000110110011110110000101010'
p236
aS'01100000000000000000000000000000010010000000000000010000000100000000000000101000000000001000000100010000000000001000000101000000000001010010000000010001010000000100000000000100000000000000001000000000'
p237
aS'01100000000000000000000110000000001100000000110001000000000010000000000000000000011000000100000000000100010001100000000010000100000100000000000000000000000000000100101100000000001000000000001010000000'
p238
aS'01100000000000000000001000010000000000001010000000000000000000000000000000000000000000001000000001000000000000100000000000101010000000000000000000010010000000000000000000100001000000000000000000000010'
p239
aS'01100000011111000010101011000000100011001101001000110111001101100100110001100110110000101000110111100011010000110001001101010010100011101001100100011001001010000011101000000110000010011000000000010101'
p240
aS'01100010100001100100001010111000000000101100001001111011000111011111010000110000111000000000100001011000000000111101011100110101101100111111011111101111011001101010100100111110110010100101001011010010'
p241
aS'01100010101000011001100001000000000010000010001000010011001001111100101000110000111101001000001010000001000010000000000010101010101000110010100010100010101110001110111101001100000100000011110000011000'
p242
aS'01100100100011000111000111110010111000001001000101110111010101000100011010110010111100001101000100000001110000101101011000010000110100000000000110001011001100100111001001001110000010000001011001010001'
p243
aS'01101011001101000000100001101001001000100111100000001000000100110001000001000101001100101000101011100000000101011111010111110001011001001111111001110110111001001000011100110100110010001010000011001100'
p244
aS'01110010011111101000011011101010000100000000110001101100001000110111100000010100000010111010010100100001000000011101100111000100000110011001100100100101011000110010010101011001000100010110100001000010'
p245
aS'01110100010101100001101101000011100110000001100001101100011000011001001100101111010001100100001110100011101010100001110111010101111111111000010110101001100101000010111100010000001100010100100100011010'
p246
aS'01110100110011100001101111000011000111001101100001100010110000011100001100100111010001001100000111000111100010101011100101011101101011111000010110101001000101000111111100000000100100100100011100011001'
p247
aS'10000000000000000000000000000000000000000100000000000000000000000000000000000000000000010100100000000000000010001000000001000000000000000001000000000000000010000000000001000000000001000000000000000000'
p248
aS'10000000000000000000000000000000100001001000001000000000100000000100000000000000000000000000000010000010010000000100001010000000000010000000000000000101000000000000000000000010000000000000000000000000'
p249
aS'10000000000000000000001000000000100000000000000000001000000000010000000000000001000010000000000000000010000000000000000010000000000000100000010000001000100000000000000000000000000000000100000001000110'
p250
aS'10000000000000000001000000010010000000000000001000000000010000000000100010000100000000000010100001000000000001001100000100000000100100000000100010000000000000000010000000000000001000000011000000000000'
p251
aS'10000000000011100001001000000000000000001000000000101000000010000001000000000001000000000000001000101000000000000010000100100000000000010000000000000000000001001010000001100000000010001000000000000000'
p252
aS'10000000000100000000110100000000000000010001000011010000000110000000001000010000000100010000000000010000000010100100000000000010001000001001000000110110011001000000010000000000000000001000000000010001'
p253
aS'10000000000110000000000000000010000100100010010000000000001000000000110000000000000000000001000000000010000000001000000010000100000000000100001100000000001000100000010000000000000000000000000001000100'
p254
aS'10000000001000000000010000000000001000000000000000000010000000000000000000000000000000000000000000000000000001000000000001100000010000001000100001000000100000000000000000100000000001100100000000001000'
p255
aS'10000000001000000010000000101000000000010010101000000010100000000000010000000000000000100000000000010001000000000010000100000000010000000100000000000000000000000101000000000100000000000000000001000000'
p256
aS'10000000010000010000000000000000000000000001000000000010010110000000000000000101000000001000010000000000000010000000000110000000000100000000000100000001010000010000001100000000000000101000010000000010'
p257
aS'10000000100011100100000010100000011000011000010100000011101001000000110010000000100011001010100001000000110000000001000000100000000100000001000100001000001001010010000001101111000000000000100000000010'
p258
aS'10000001000000010000011000000000000000000011000000000100000000000000001000000000000010100010000000000000000100000000010000010000000000100000010000000000100000000000010000000000010000100000000000001001'
p259
aS'10000001000100000000000000100000000000000000000010000000000000000000001100000000000000100000000001010000000000000000100000000000010000000010000010100010000000000000000001000000000000010000000000000000'
p260
aS'10000010000000010000100001000000000001000000000000000000000000100000000100000000000000000000000100000000000000000000010000100001001000000000100101010100001000000000000000000000000100010100000000000000'
p261
aS'10001000000000010000010000010100100000100000010001100000100000000010100000001001000000000100000110100010100100100110100100010010011000000000101001000000000000101000000100000000011100000100000111100001'
p262
aS'10001000000100000100000001000000000000000000100000001001100000000000000000000000000000000000000000000000000000000100000000000000000010010000010001100000000100010000100000000001000001000000000000000000'
p263
aS'10001000010000011010011110110100001101011110010010100010101111101010110011001000100011011011010001111000100010100010000000001110100100000001101101001010000100010100000011000111011100111010100001100001'
p264
aS'10001001000000000000100000000100000000000000000001000000000001000000000100011000000000000000100000000000000001010000010000000000111000000000000001000000000100000000000000000000000000000000000000010000'
p265
aS'10001010000100010001010100101000000100110001000010001010010110001001000010010100000110110111110011001001111011110110100100000000001001100000101110001110011001100101010010000001011010101000000000010011'
p266
aS'10001011000100011100110000001100011010110110111010000110101001111010111000010001100111010011101010010000100101100111101000000100000110000111111000110000010010111100000111111111010111011011101001111111'
p267
aS'10001011000101010001010100000001011100011111000011000001110010101000000000000000001110111110101000001011101111001100000000100001000001000101100011010010000110001100010111100011010100101010110011100001'
p268
aS'10001011001100011000110100001011000000100011110010101100010010011001001000011101010110110111001010010000100111000110100111000001001011010010110010110110110001001100010111100001011100100010000011101010'
p269
aS'10001011101100011100010100101101011000110011110011101110000010001010100001010001001111010011101001011000000101011100100010000001000100000110100001000111010001111100010100110001011010101011000011100000'
p270
aS'10001011111100011101110000001100011010010110110010100110101110101010101000010101001111010010101010000000100111000101001000000000000101000011110010110010110010011100011111110011010110001010100001101100'
p271
aS'10001100010000000000000000000000001000000000001000100000000000000100000001000001010000000000000000000000000000000001000100000000000000010000000000000000100000011000000000000000000000000000000000010000'
p272
aS'10010000000000000000000000000000000000000000000000000000000000000100000000000000000100010000000000010000101000000000000000000000010000000000000000000100000100010000000000000000000000000001100000010001'
p273
aS'10010001000000000000000000000000000000000000000011000000000000000001000000000000000000101000000000010100000000010000000100001000000100000000000100000000000000000000010000100000000000000000000000000000'
p274
aS'10010010000000000000000000000001001000000000000000010000000100000010001000000000100000100000000100000000100000000000000000000001000000000000000000000000000000000000000000000000000000000000000000000000'
p275
aS'10010010100010111100010010111100011000111110011001000010101001111010110011011000101011011010101010010100000101000011000000100110000100000110101001000000010000110100000011111101100011100011101001001100'
p276
aS'10010100010000001000010100011111001000110000010000100000110100011000101111011100000000010111000010000100110111100010100001110101000000100000010000000000110100000110000001000100001000100110000011000011'
p277
aS'10010110100011010000110010110000001000111100100010100001110100100000111001010000111010111110001000001001110011101110001000000000000000010100110010100010000110101110000011001101010000101001001001010001'
p278
aS'10011011000000011000010100001111010100110010110011000000101010011010000101001000000010010111001010010100100111001011100100100101100000000110000000000000110000110100010101110001001100100110100001101000'
p279
aS'10011011001100011000010100001111010100110011110010000100010010011010001110011101000111110111001010010100101111000110100111000101001011010110110010010110110001101100010111100001011100100110000100001010'
p280
aS'10011011011110011001100100001011000110010001010011000100100010011100101000000001000111110111010010110001100101000110100111000101000001010000100000000111111000100100010100000001001100100110010110101000'
p281
aS'10100000000010000000001000000000000000000001000000000000000000000000100000000100001000000000010101000000000000010000000000000000000000001000000010000000000000000001000000000000110000000000000000000000'
p282
aS'10100100000000000000011010000000000000001000000000000000000100000000000001000000010001000100000000000000000000000000100001000000000110000000101001000001000010000001100000001000100000000001001000010000'
p283
aS'10100100000000000010001000000000000100001010000000000000000101000010110001010000000000000100000000000000000000100011000100000000000110000000101000000101000011000010100000001001100000000100101000011000'
p284
aS'10100100011101010000001111001011110100001101100100100100011100010001000010000111000000101111010110111011111011110010110111011000010111001000010100011001101000100111110001000000001001101001010111110101'
p285
aS'10110011001101101000000000001011000000100001001001111000010000011001001100110101010100110101010110000001001111010101100111110001001001111011110110000111111001001001111100100000101010100100000110001010'
p286
aS'10111000111110101101100000001010000111010001001010100111001000111101101101110111010101101000011110000011001000101001101010010100000011011000110000101001110110001001100010011101010100000110100100011110'
p287
aS'11000000000000000000000010100001000000000000001000000000000000000000000000000010000000100010000000000000010000000100000001000000000010000000000000010000001001000000000000100000000000000000001001000000'
p288
aS'11000110100101100001001111000011000000000001000000111001010100011101001100110111110101100100000111000111001010101001110101010001101011111100011110101010101101001011111100000000101110100100011110011000'
p289
aS'11001000000000010000010000010101100100100000010001101100100010000010100000011001000000011100000110100010100100100110100100010010011000000000101001001100000101101000000100110000011100000100000111100001'
p290
aS'11001000000010010000010000010111100100000000000100101101110010001010000101011000101000011001000000000010110100111100000100110010001100000100001000001100001101000010000100110000010000100100000111000000'
p291
aS'11010010000000101000000000000000000000100000000100001010000010100100000000001000000001000000000001000000100000000000000000000000000010000010000000100000000000001100000000000010000001100001000010000000'
p292
aS'11100011100101000100110000101000000000010101101000011111010100000001110011110100011100101101101000011001010111100100010010010011011001100011111011110110111011001110111100100100010010101001000110010111'
p293
aS'11100100100010000000001001000010000001010000000100000000000010001000000001000000100000000000000000100101000000100100000001010000000001000000000110000000001001000100001100000000000000110000000100000011'
p294
aS'11100100100110000100001001000010000001010000000110000010000010001000001101010000100100000000000000100111000000100100000001010000000001010000000110000000100001000100101110001100010100110000000100000111'
p295
aS'11101001111010000110110010111000011010110110011110000111101101110110110001010000101110001010101000000001010101000001001000100110001000000111101001110010011110011100001010111101010100001010101011000110'
p296
aS'11110101000011000000000010000000000000000000000000010000000000000001000001100000000010001010100000000000000000000000010000000000000000000000000100000000000000101000000000000000000000000000000000010000'
p297
aS'11111000111111101101101111000110000110010110011011000111101001111110101101010001101101001000111110000001100100000001101000000100000110010011100010111001000110011000001111011111000100010110101000001100'
p298
aS'11111110011110100001001101000011100100000011010001110010000000011010001100110111010001000100011110000001001000001001100111000100111011111100000010001000000001110011110100011001000110010110100101011000'
p299
a.